Archive member included because of file (symbol)

libbb/lib.a(appletlib.o)      /opt/workspace/rtl8198/rtl819x/toolchain/rsdk-1.3.6-5281-EB-2.6.30-0.9.30/lib/crt1.o (main)
libbb/lib.a(default_error_retval.o)
                              libbb/lib.a(appletlib.o) (xfunc_error_retval)
libbb/lib.a(get_last_path_component.o)
                              libbb/lib.a(appletlib.o) (bb_basename)
libbb/lib.a(last_char_is.o)   libbb/lib.a(get_last_path_component.o) (last_char_is)
libbb/lib.a(messages.o)       libbb/lib.a(appletlib.o) (bb_banner)
libbb/lib.a(ptr_to_globals.o)
                              libbb/lib.a(appletlib.o) (bb_errno)
libbb/lib.a(verror_msg.o)     libbb/lib.a(appletlib.o) (bb_error_msg_and_die)
libbb/lib.a(xfunc_die.o)      libbb/lib.a(appletlib.o) (xfunc_die)
libbb/lib.a(xfuncs.o)         libbb/lib.a(appletlib.o) (full_write2_str)
libbb/lib.a(xfuncs_printf.o)  libbb/lib.a(appletlib.o) (malloc_or_warn)
libbb/lib.a(copyfd.o)         libbb/lib.a(xfuncs_printf.o) (bb_copyfd_eof)
libbb/lib.a(full_write.o)     libbb/lib.a(verror_msg.o) (full_write)
libbb/lib.a(perror_msg.o)     libbb/lib.a(xfuncs_printf.o) (bb_perror_msg)
libbb/lib.a(read.o)           libbb/lib.a(copyfd.o) (safe_read)
libbb/lib.a(safe_write.o)     libbb/lib.a(full_write.o) (safe_write)
libbb/lib.a(time.o)           libbb/lib.a(xfuncs_printf.o) (monotonic_us)
libbb/lib.a(bb_strtonum.o)    libbb/lib.a(time.o) (bb_strtol)
miscutils/lib.a(flash_eraseall.o)
                              libbb/lib.a(appletlib.o) (flash_eraseall_main)
miscutils/lib.a(flash_lock_unlock.o)
                              libbb/lib.a(appletlib.o) (flash_lock_unlock_main)
miscutils/lib.a(watchdog.o)   libbb/lib.a(appletlib.o) (watchdog_main)
modutils/lib.a(insmod.o)      libbb/lib.a(appletlib.o) (insmod_main)
modutils/lib.a(lsmod.o)       libbb/lib.a(appletlib.o) (lsmod_main)
modutils/lib.a(modutils.o)    modutils/lib.a(insmod.o) (parse_cmdline_module_options)
modutils/lib.a(rmmod.o)       libbb/lib.a(appletlib.o) (rmmod_main)
networking/lib.a(ftpgetput.o)
                              libbb/lib.a(appletlib.o) (ftpgetput_main)
networking/lib.a(ifconfig.o)  libbb/lib.a(appletlib.o) (ifconfig_main)
networking/lib.a(interface.o)
                              networking/lib.a(ifconfig.o) (display_interfaces)
networking/lib.a(ping.o)      libbb/lib.a(appletlib.o) (ping_main)
networking/lib.a(route.o)     libbb/lib.a(appletlib.o) (route_main)
networking/lib.a(vconfig.o)   libbb/lib.a(appletlib.o) (vconfig_main)
networking/lib.a(wget.o)      libbb/lib.a(appletlib.o) (wget_main)
networking/udhcp/lib.a(dhcpc.o)
                              libbb/lib.a(appletlib.o) (udhcpc_main)
networking/udhcp/lib.a(domain_codec.o)
                              networking/udhcp/lib.a(dhcpc.o) (dname_dec)
networking/udhcp/lib.a(packet.o)
                              networking/udhcp/lib.a(dhcpc.o) (udhcp_init_header)
networking/udhcp/lib.a(signalpipe.o)
                              networking/udhcp/lib.a(dhcpc.o) (udhcp_sp_setup)
networking/udhcp/lib.a(socket.o)
                              networking/udhcp/lib.a(dhcpc.o) (udhcp_read_interface)
networking/udhcp/lib.a(common.o)
                              networking/udhcp/lib.a(dhcpc.o) (dhcp_option_lengths)
procps/lib.a(kill.o)          libbb/lib.a(appletlib.o) (kill_main)
procps/lib.a(pidof.o)         libbb/lib.a(appletlib.o) (pidof_main)
procps/lib.a(ps.o)            libbb/lib.a(appletlib.o) (ps_main)
procps/lib.a(uptime.o)        libbb/lib.a(appletlib.o) (uptime_main)
shell/lib.a(ash.o)            libbb/lib.a(appletlib.o) (ash_main)
shell/lib.a(ash_ptr_hack.o)   shell/lib.a(ash.o) (ash_ptr_to_globals_misc)
shell/lib.a(math.o)           shell/lib.a(ash.o) (endofname)
shell/lib.a(shell_common.o)   shell/lib.a(ash.o) (defifsvar)
sysklogd/lib.a(klogd.o)       libbb/lib.a(appletlib.o) (klogd_main)
sysklogd/lib.a(logread.o)     libbb/lib.a(appletlib.o) (logread_main)
sysklogd/lib.a(syslogd_and_logger.o)
                              libbb/lib.a(appletlib.o) (syslogd_main)
util-linux/lib.a(dmesg.o)     libbb/lib.a(appletlib.o) (dmesg_main)
util-linux/lib.a(hwclock.o)   libbb/lib.a(appletlib.o) (hwclock_main)
util-linux/lib.a(mount.o)     libbb/lib.a(appletlib.o) (mount_main)
util-linux/lib.a(switch_root.o)
                              libbb/lib.a(appletlib.o) (switch_root_main)
util-linux/lib.a(umount.o)    libbb/lib.a(appletlib.o) (umount_main)
archival/lib.a(tar.o)         libbb/lib.a(appletlib.o) (tar_main)
archival/libarchive/lib.a(data_extract_all.o)
                              archival/lib.a(tar.o) (data_extract_all)
archival/libarchive/lib.a(data_extract_to_command.o)
                              archival/lib.a(tar.o) (data_extract_to_command)
archival/libarchive/lib.a(data_extract_to_stdout.o)
                              archival/lib.a(tar.o) (data_extract_to_stdout)
archival/libarchive/lib.a(data_skip.o)
                              archival/libarchive/lib.a(data_extract_all.o) (data_skip)
archival/libarchive/lib.a(decompress_bunzip2.o)
                              libbb/lib.a(appletlib.o) (read_bunzip)
archival/libarchive/lib.a(filter_accept_reject_list.o)
                              archival/lib.a(tar.o) (filter_accept_reject_list)
archival/libarchive/lib.a(find_list_entry.o)
                              archival/lib.a(tar.o) (find_list_entry)
archival/libarchive/lib.a(get_header_tar.o)
                              archival/lib.a(tar.o) (strip_unsafe_prefix)
archival/libarchive/lib.a(get_header_tar_gz.o)
                              archival/lib.a(tar.o) (get_header_tar_gz)
archival/libarchive/lib.a(header_list.o)
                              archival/lib.a(tar.o) (header_list)
archival/libarchive/lib.a(header_verbose_list.o)
                              archival/lib.a(tar.o) (header_verbose_list)
archival/libarchive/lib.a(init_handle.o)
                              archival/lib.a(tar.o) (init_handle)
archival/libarchive/lib.a(open_transformer.o)
                              archival/libarchive/lib.a(get_header_tar_gz.o) (open_transformer)
archival/libarchive/lib.a(seek_by_jump.o)
                              archival/libarchive/lib.a(init_handle.o) (seek_by_jump)
archival/libarchive/lib.a(seek_by_read.o)
                              archival/lib.a(tar.o) (seek_by_read)
archival/libarchive/lib.a(data_align.o)
                              archival/libarchive/lib.a(get_header_tar.o) (data_align)
archival/libarchive/lib.a(decompress_unzip.o)
                              archival/libarchive/lib.a(get_header_tar_gz.o) (unpack_gz_stream)
archival/libarchive/lib.a(filter_accept_all.o)
                              archival/libarchive/lib.a(init_handle.o) (filter_accept_all)
archival/libarchive/lib.a(header_skip.o)
                              archival/libarchive/lib.a(init_handle.o) (header_skip)
console-tools/lib.a(clear.o)  libbb/lib.a(appletlib.o) (clear_main)
coreutils/lib.a(basename.o)   libbb/lib.a(appletlib.o) (basename_main)
coreutils/lib.a(cat.o)        libbb/lib.a(appletlib.o) (cat_main)
coreutils/lib.a(chmod.o)      libbb/lib.a(appletlib.o) (chmod_main)
coreutils/lib.a(cp.o)         libbb/lib.a(appletlib.o) (cp_main)
coreutils/lib.a(date.o)       libbb/lib.a(appletlib.o) (date_main)
coreutils/lib.a(df.o)         libbb/lib.a(appletlib.o) (df_main)
coreutils/lib.a(echo.o)       libbb/lib.a(appletlib.o) (echo_main)
coreutils/lib.a(ln.o)         libbb/lib.a(appletlib.o) (ln_main)
coreutils/lib.a(ls.o)         libbb/lib.a(appletlib.o) (ls_main)
coreutils/lib.a(mkdir.o)      libbb/lib.a(appletlib.o) (mkdir_main)
coreutils/lib.a(mknod.o)      libbb/lib.a(appletlib.o) (mknod_main)
coreutils/lib.a(mv.o)         libbb/lib.a(appletlib.o) (mv_main)
coreutils/lib.a(printf.o)     shell/lib.a(ash.o) (printf_main)
coreutils/lib.a(pwd.o)        libbb/lib.a(appletlib.o) (pwd_main)
coreutils/lib.a(rm.o)         libbb/lib.a(appletlib.o) (rm_main)
coreutils/lib.a(sleep.o)      libbb/lib.a(appletlib.o) (sleep_main)
coreutils/lib.a(sync.o)       libbb/lib.a(appletlib.o) (sync_main)
coreutils/lib.a(test.o)       shell/lib.a(ash.o) (test_main)
coreutils/lib.a(test_ptr_hack.o)
                              coreutils/lib.a(test.o) (test_ptr_to_statics)
coreutils/lib.a(touch.o)      libbb/lib.a(appletlib.o) (touch_main)
coreutils/lib.a(uname.o)      libbb/lib.a(appletlib.o) (uname_main)
coreutils/libcoreutils/lib.a(cp_mv_stat.o)
                              coreutils/lib.a(cp.o) (cp_mv_stat2)
coreutils/libcoreutils/lib.a(getopt_mk_fifo_nod.o)
                              coreutils/lib.a(mknod.o) (getopt_mk_fifo_nod)
init/lib.a(halt.o)            libbb/lib.a(appletlib.o) (halt_main)
init/lib.a(init.o)            libbb/lib.a(appletlib.o) (init_main)
libbb/lib.a(ask_confirmation.o)
                              coreutils/lib.a(mv.o) (bb_ask_confirmation)
libbb/lib.a(bb_pwd.o)         sysklogd/lib.a(syslogd_and_logger.o) (uid2uname_utoa)
libbb/lib.a(compare_string_array.o)
                              networking/lib.a(wget.o) (index_in_strings)
libbb/lib.a(concat_path_file.o)
                              modutils/lib.a(insmod.o) (concat_path_file)
libbb/lib.a(copy_file.o)      coreutils/lib.a(cp.o) (copy_file)
libbb/lib.a(crc32.o)          miscutils/lib.a(flash_eraseall.o) (crc32_filltable)
libbb/lib.a(create_icmp_socket.o)
                              networking/lib.a(ping.o) (create_icmp_socket)
libbb/lib.a(device_open.o)    sysklogd/lib.a(syslogd_and_logger.o) (device_open)
libbb/lib.a(execable.o)       init/lib.a(init.o) (BB_EXECVP)
libbb/lib.a(fflush_stdout_and_exit.o)
                              networking/lib.a(route.o) (fflush_stdout_and_exit)
libbb/lib.a(find_mount_point.o)
                              util-linux/lib.a(mount.o) (find_mount_point)
libbb/lib.a(find_pid_by_name.o)
                              procps/lib.a(kill.o) (find_pid_by_name)
libbb/lib.a(get_line_from_file.o)
                              util-linux/lib.a(mount.o) (xmalloc_fgetline)
libbb/lib.a(get_shell_name.o)
                              archival/lib.a(tar.o) (get_shell_name)
libbb/lib.a(getopt32.o)       coreutils/lib.a(cat.o) (bb_argv_dash)
libbb/lib.a(human_readable.o)
                              coreutils/lib.a(df.o) (make_human_readable_str)
libbb/lib.a(inet_common.o)    networking/lib.a(interface.o) (INET_resolve)
libbb/lib.a(info_msg.o)       miscutils/lib.a(flash_eraseall.o) (bb_info_msg)
libbb/lib.a(inode_hash.o)     libbb/lib.a(copy_file.o) (is_in_ino_dev_hashtable)
libbb/lib.a(isdirectory.o)    coreutils/lib.a(ln.o) (is_directory)
libbb/lib.a(lineedit.o)       shell/lib.a(ash.o) (new_line_input_t)
libbb/lib.a(lineedit_ptr_hack.o)
                              libbb/lib.a(lineedit.o) (lineedit_ptr_to_statics)
libbb/lib.a(llist.o)          sysklogd/lib.a(syslogd_and_logger.o) (llist_add_to)
libbb/lib.a(login.o)          util-linux/lib.a(mount.o) (sanitize_env_if_suid)
libbb/lib.a(loop.o)           util-linux/lib.a(mount.o) (del_loop)
libbb/lib.a(make_directory.o)
                              archival/libarchive/lib.a(data_extract_all.o) (bb_make_directory)
libbb/lib.a(makedev.o)        archival/libarchive/lib.a(get_header_tar.o) (bb_makedev)
libbb/lib.a(match_fstype.o)   util-linux/lib.a(mount.o) (match_fstype)
libbb/lib.a(mode_string.o)    archival/libarchive/lib.a(header_verbose_list.o) (bb_mode_string)
libbb/lib.a(parse_config.o)   init/lib.a(init.o) (config_open2)
libbb/lib.a(parse_mode.o)     shell/lib.a(ash.o) (bb_parse_mode)
libbb/lib.a(percent_decode.o)
                              networking/lib.a(wget.o) (percent_decode_in_place)
libbb/lib.a(perror_nomsg_and_die.o)
                              networking/lib.a(ftpgetput.o) (bb_perror_nomsg_and_die)
libbb/lib.a(pidfile.o)        networking/udhcp/lib.a(dhcpc.o) (write_pidfile)
libbb/lib.a(printable_string.o)
                              coreutils/lib.a(ls.o) (printable_string)
libbb/lib.a(process_escape_sequence.o)
                              shell/lib.a(ash.o) (bb_process_escape_sequence)
libbb/lib.a(procps.o)         procps/lib.a(ps.o) (get_cached_username)
libbb/lib.a(progress.o)       networking/lib.a(wget.o) (bb_progress_init)
libbb/lib.a(read_key.o)       libbb/lib.a(lineedit.o) (read_key)
libbb/lib.a(read_printf.o)    shell/lib.a(ash.o) (nonblock_immune_read)
libbb/lib.a(recursive_action.o)
                              modutils/lib.a(insmod.o) (recursive_action)
libbb/lib.a(remove_file.o)    coreutils/lib.a(mv.o) (remove_file)
libbb/lib.a(rtc.o)            util-linux/lib.a(hwclock.o) (rtc_adjtime_is_utc)
libbb/lib.a(safe_gethostname.o)
                              sysklogd/lib.a(syslogd_and_logger.o) (safe_gethostname)
libbb/lib.a(safe_poll.o)      networking/lib.a(wget.o) (safe_poll)
libbb/lib.a(safe_strncpy.o)   networking/udhcp/lib.a(dhcpc.o) (safe_strncpy)
libbb/lib.a(signals.o)        sysklogd/lib.a(klogd.o) (record_signo)
libbb/lib.a(simplify_path.o)  util-linux/lib.a(mount.o) (bb_simplify_path)
libbb/lib.a(skip_whitespace.o)
                              networking/lib.a(interface.o) (skip_whitespace)
libbb/lib.a(str_tolower.o)    networking/lib.a(wget.o) (str_tolower)
libbb/lib.a(u_signal_names.o)
                              procps/lib.a(kill.o) (get_signum)
libbb/lib.a(uuencode.o)       networking/lib.a(wget.o) (bb_uuenc_tbl_base64)
libbb/lib.a(vfork_daemon_rexec.o)
                              networking/udhcp/lib.a(dhcpc.o) (spawn_and_wait)
libbb/lib.a(wfopen.o)         networking/lib.a(interface.o) (fopen_or_warn)
libbb/lib.a(wfopen_input.o)   libbb/lib.a(parse_config.o) (fopen_or_warn_stdin)
libbb/lib.a(xatonum.o)        miscutils/lib.a(flash_lock_unlock.o) (xstrtol)
libbb/lib.a(xconnect.o)       networking/udhcp/lib.a(packet.o) (setsockopt_reuseaddr)
libbb/lib.a(xgetcwd.o)        coreutils/lib.a(pwd.o) (xrealloc_getcwd_or_warn)
libbb/lib.a(xreadlink.o)      libbb/lib.a(procps.o) (xmalloc_readlink)
libbb/lib.a(xrealloc_vector.o)
                              libbb/lib.a(find_pid_by_name.o) (xrealloc_vector_helper)
libbb/lib.a(bb_qsort.o)       libbb/lib.a(lineedit.o) (qsort_string_vector)
libbb/lib.a(concat_subpath_file.o)
                              libbb/lib.a(copy_file.o) (concat_subpath_file)

Discarded input sections

 .text          0x0000000000000000        0x0 /opt/workspace/rtl8198/rtl819x/toolchain/rsdk-1.3.6-5281-EB-2.6.30-0.9.30/lib/crti.o
 .data          0x0000000000000000        0x0 /opt/workspace/rtl8198/rtl819x/toolchain/rsdk-1.3.6-5281-EB-2.6.30-0.9.30/lib/crti.o
 .bss           0x0000000000000000        0x0 /opt/workspace/rtl8198/rtl819x/toolchain/rsdk-1.3.6-5281-EB-2.6.30-0.9.30/lib/crti.o
 .reginfo       0x0000000000000000        0x0 /opt/workspace/rtl8198/rtl819x/toolchain/rsdk-1.3.6-5281-EB-2.6.30-0.9.30/lib/crti.o
 .pdr           0x0000000000000000        0x0 /opt/workspace/rtl8198/rtl819x/toolchain/rsdk-1.3.6-5281-EB-2.6.30-0.9.30/lib/crti.o
 .note.GNU-stack
                0x0000000000000000        0x0 /opt/workspace/rtl8198/rtl819x/toolchain/rsdk-1.3.6-5281-EB-2.6.30-0.9.30/lib/crti.o
 .data          0x0000000000000000        0x0 /opt/workspace/rtl8198/rtl819x/toolchain/rsdk-1.3.6-5281-EB-2.6.30-0.9.30/lib/crt1.o
 .bss           0x0000000000000000        0x0 /opt/workspace/rtl8198/rtl819x/toolchain/rsdk-1.3.6-5281-EB-2.6.30-0.9.30/lib/crt1.o
 .reginfo       0x0000000000000000        0x0 /opt/workspace/rtl8198/rtl819x/toolchain/rsdk-1.3.6-5281-EB-2.6.30-0.9.30/lib/crt1.o
 .note.GNU-stack
                0x0000000000000000        0x0 /opt/workspace/rtl8198/rtl819x/toolchain/rsdk-1.3.6-5281-EB-2.6.30-0.9.30/lib/crt1.o
 .data          0x0000000000000000        0x0 /opt/workspace/rtl8198/rtl819x/toolchain/rsdk-1.3.6-5281-EB-2.6.30-0.9.30/lib/crtbeginS.o
 .reginfo       0x0000000000000000        0x0 /opt/workspace/rtl8198/rtl819x/toolchain/rsdk-1.3.6-5281-EB-2.6.30-0.9.30/lib/crtbeginS.o
 .reginfo       0x0000000000000000        0x0 applets/built-in.o
 .text          0x0000000000000000        0x0 applets/built-in.o
 .data          0x0000000000000000        0x0 applets/built-in.o
 .bss           0x0000000000000000        0x0 applets/built-in.o
 .text          0x0000000000000000        0x0 libbb/lib.a(appletlib.o)
 .data          0x0000000000000000        0x0 libbb/lib.a(appletlib.o)
 .bss           0x0000000000000000        0x0 libbb/lib.a(appletlib.o)
 .reginfo       0x0000000000000000        0x0 libbb/lib.a(appletlib.o)
 .pdr           0x0000000000000000        0x0 libbb/lib.a(appletlib.o)
 .text          0x0000000000000000        0x0 libbb/lib.a(default_error_retval.o)
 .data          0x0000000000000000        0x0 libbb/lib.a(default_error_retval.o)
 .bss           0x0000000000000000        0x0 libbb/lib.a(default_error_retval.o)
 .reginfo       0x0000000000000000        0x0 libbb/lib.a(default_error_retval.o)
 .text          0x0000000000000000        0x0 libbb/lib.a(get_last_path_component.o)
 .data          0x0000000000000000        0x0 libbb/lib.a(get_last_path_component.o)
 .bss           0x0000000000000000        0x0 libbb/lib.a(get_last_path_component.o)
 .reginfo       0x0000000000000000        0x0 libbb/lib.a(get_last_path_component.o)
 .pdr           0x0000000000000000        0x0 libbb/lib.a(get_last_path_component.o)
 .text          0x0000000000000000        0x0 libbb/lib.a(last_char_is.o)
 .data          0x0000000000000000        0x0 libbb/lib.a(last_char_is.o)
 .bss           0x0000000000000000        0x0 libbb/lib.a(last_char_is.o)
 .reginfo       0x0000000000000000        0x0 libbb/lib.a(last_char_is.o)
 .pdr           0x0000000000000000        0x0 libbb/lib.a(last_char_is.o)
 .text          0x0000000000000000        0x0 libbb/lib.a(messages.o)
 .data          0x0000000000000000        0x0 libbb/lib.a(messages.o)
 .bss           0x0000000000000000        0x0 libbb/lib.a(messages.o)
 .reginfo       0x0000000000000000        0x0 libbb/lib.a(messages.o)
 .rodata.bb_msg_invalid_arg
                0x0000000000000000        0x0 libbb/lib.a(messages.o)
 .rodata.bb_msg_you_must_be_root
                0x0000000000000000        0x0 libbb/lib.a(messages.o)
 .text          0x0000000000000000        0x0 libbb/lib.a(ptr_to_globals.o)
 .data          0x0000000000000000        0x0 libbb/lib.a(ptr_to_globals.o)
 .bss           0x0000000000000000        0x0 libbb/lib.a(ptr_to_globals.o)
 .reginfo       0x0000000000000000        0x0 libbb/lib.a(ptr_to_globals.o)
 .text          0x0000000000000000        0x0 libbb/lib.a(verror_msg.o)
 .data          0x0000000000000000        0x0 libbb/lib.a(verror_msg.o)
 .bss           0x0000000000000000        0x0 libbb/lib.a(verror_msg.o)
 .reginfo       0x0000000000000000        0x0 libbb/lib.a(verror_msg.o)
 .pdr           0x0000000000000000        0x0 libbb/lib.a(verror_msg.o)
 .text          0x0000000000000000        0x0 libbb/lib.a(xfunc_die.o)
 .data          0x0000000000000000        0x0 libbb/lib.a(xfunc_die.o)
 .bss           0x0000000000000000        0x0 libbb/lib.a(xfunc_die.o)
 .reginfo       0x0000000000000000        0x0 libbb/lib.a(xfunc_die.o)
 .pdr           0x0000000000000000        0x0 libbb/lib.a(xfunc_die.o)
 .text          0x0000000000000000        0x0 libbb/lib.a(xfuncs.o)
 .data          0x0000000000000000        0x0 libbb/lib.a(xfuncs.o)
 .bss           0x0000000000000000        0x0 libbb/lib.a(xfuncs.o)
 .reginfo       0x0000000000000000        0x0 libbb/lib.a(xfuncs.o)
 .pdr           0x0000000000000000        0x0 libbb/lib.a(xfuncs.o)
 .text          0x0000000000000000        0x0 libbb/lib.a(xfuncs_printf.o)
 .data          0x0000000000000000        0x0 libbb/lib.a(xfuncs_printf.o)
 .bss           0x0000000000000000        0x0 libbb/lib.a(xfuncs_printf.o)
 .reginfo       0x0000000000000000        0x0 libbb/lib.a(xfuncs_printf.o)
 .pdr           0x0000000000000000        0x0 libbb/lib.a(xfuncs_printf.o)
 .text.xopen_nonblocking
                0x0000000000000000        0x0 libbb/lib.a(xfuncs_printf.o)
 .text.xunlink  0x0000000000000000        0x0 libbb/lib.a(xfuncs_printf.o)
 .text.xrename  0x0000000000000000        0x0 libbb/lib.a(xfuncs_printf.o)
 .text.rename_or_warn
                0x0000000000000000        0x0 libbb/lib.a(xfuncs_printf.o)
 .text.xwrite_str
                0x0000000000000000        0x0 libbb/lib.a(xfuncs_printf.o)
 .text.xmkstemp
                0x0000000000000000        0x0 libbb/lib.a(xfuncs_printf.o)
 .text.die_if_ferror
                0x0000000000000000        0x0 libbb/lib.a(xfuncs_printf.o)
 .text.die_if_ferror_stdout
                0x0000000000000000        0x0 libbb/lib.a(xfuncs_printf.o)
 .text.xprint_and_close_file
                0x0000000000000000        0x0 libbb/lib.a(xfuncs_printf.o)
 .text.xlisten  0x0000000000000000        0x0 libbb/lib.a(xfuncs_printf.o)
 .text.selinux_or_die
                0x0000000000000000        0x0 libbb/lib.a(xfuncs_printf.o)
 .text.xmalloc_ttyname
                0x0000000000000000        0x0 libbb/lib.a(xfuncs_printf.o)
 .text.generate_uuid
                0x0000000000000000        0x0 libbb/lib.a(xfuncs_printf.o)
 .text          0x0000000000000000        0x0 libbb/lib.a(copyfd.o)
 .data          0x0000000000000000        0x0 libbb/lib.a(copyfd.o)
 .bss           0x0000000000000000        0x0 libbb/lib.a(copyfd.o)
 .reginfo       0x0000000000000000        0x0 libbb/lib.a(copyfd.o)
 .pdr           0x0000000000000000        0x0 libbb/lib.a(copyfd.o)
 .text          0x0000000000000000        0x0 libbb/lib.a(full_write.o)
 .data          0x0000000000000000        0x0 libbb/lib.a(full_write.o)
 .bss           0x0000000000000000        0x0 libbb/lib.a(full_write.o)
 .reginfo       0x0000000000000000        0x0 libbb/lib.a(full_write.o)
 .pdr           0x0000000000000000        0x0 libbb/lib.a(full_write.o)
 .text          0x0000000000000000        0x0 libbb/lib.a(perror_msg.o)
 .data          0x0000000000000000        0x0 libbb/lib.a(perror_msg.o)
 .bss           0x0000000000000000        0x0 libbb/lib.a(perror_msg.o)
 .reginfo       0x0000000000000000        0x0 libbb/lib.a(perror_msg.o)
 .pdr           0x0000000000000000        0x0 libbb/lib.a(perror_msg.o)
 .text          0x0000000000000000        0x0 libbb/lib.a(read.o)
 .data          0x0000000000000000        0x0 libbb/lib.a(read.o)
 .bss           0x0000000000000000        0x0 libbb/lib.a(read.o)
 .reginfo       0x0000000000000000        0x0 libbb/lib.a(read.o)
 .pdr           0x0000000000000000        0x0 libbb/lib.a(read.o)
 .text          0x0000000000000000        0x0 libbb/lib.a(safe_write.o)
 .data          0x0000000000000000        0x0 libbb/lib.a(safe_write.o)
 .bss           0x0000000000000000        0x0 libbb/lib.a(safe_write.o)
 .reginfo       0x0000000000000000        0x0 libbb/lib.a(safe_write.o)
 .pdr           0x0000000000000000        0x0 libbb/lib.a(safe_write.o)
 .text          0x0000000000000000        0x0 libbb/lib.a(time.o)
 .data          0x0000000000000000        0x0 libbb/lib.a(time.o)
 .bss           0x0000000000000000        0x0 libbb/lib.a(time.o)
 .reginfo       0x0000000000000000        0x0 libbb/lib.a(time.o)
 .pdr           0x0000000000000000        0x0 libbb/lib.a(time.o)
 .text.monotonic_ns
                0x0000000000000000        0x0 libbb/lib.a(time.o)
 .text          0x0000000000000000        0x0 libbb/lib.a(bb_strtonum.o)
 .data          0x0000000000000000        0x0 libbb/lib.a(bb_strtonum.o)
 .bss           0x0000000000000000        0x0 libbb/lib.a(bb_strtonum.o)
 .reginfo       0x0000000000000000        0x0 libbb/lib.a(bb_strtonum.o)
 .pdr           0x0000000000000000        0x0 libbb/lib.a(bb_strtonum.o)
 .text          0x0000000000000000        0x0 miscutils/lib.a(flash_eraseall.o)
 .data          0x0000000000000000        0x0 miscutils/lib.a(flash_eraseall.o)
 .bss           0x0000000000000000        0x0 miscutils/lib.a(flash_eraseall.o)
 .reginfo       0x0000000000000000        0x0 miscutils/lib.a(flash_eraseall.o)
 .pdr           0x0000000000000000        0x0 miscutils/lib.a(flash_eraseall.o)
 .text          0x0000000000000000        0x0 miscutils/lib.a(flash_lock_unlock.o)
 .data          0x0000000000000000        0x0 miscutils/lib.a(flash_lock_unlock.o)
 .bss           0x0000000000000000        0x0 miscutils/lib.a(flash_lock_unlock.o)
 .reginfo       0x0000000000000000        0x0 miscutils/lib.a(flash_lock_unlock.o)
 .pdr           0x0000000000000000        0x0 miscutils/lib.a(flash_lock_unlock.o)
 .text          0x0000000000000000        0x0 miscutils/lib.a(watchdog.o)
 .data          0x0000000000000000        0x0 miscutils/lib.a(watchdog.o)
 .bss           0x0000000000000000        0x0 miscutils/lib.a(watchdog.o)
 .reginfo       0x0000000000000000        0x0 miscutils/lib.a(watchdog.o)
 .pdr           0x0000000000000000        0x0 miscutils/lib.a(watchdog.o)
 .text          0x0000000000000000        0x0 modutils/lib.a(insmod.o)
 .data          0x0000000000000000        0x0 modutils/lib.a(insmod.o)
 .bss           0x0000000000000000        0x0 modutils/lib.a(insmod.o)
 .reginfo       0x0000000000000000        0x0 modutils/lib.a(insmod.o)
 .pdr           0x0000000000000000        0x0 modutils/lib.a(insmod.o)
 .text          0x0000000000000000        0x0 modutils/lib.a(lsmod.o)
 .data          0x0000000000000000        0x0 modutils/lib.a(lsmod.o)
 .bss           0x0000000000000000        0x0 modutils/lib.a(lsmod.o)
 .reginfo       0x0000000000000000        0x0 modutils/lib.a(lsmod.o)
 .pdr           0x0000000000000000        0x0 modutils/lib.a(lsmod.o)
 .text          0x0000000000000000        0x0 modutils/lib.a(modutils.o)
 .data          0x0000000000000000        0x0 modutils/lib.a(modutils.o)
 .bss           0x0000000000000000        0x0 modutils/lib.a(modutils.o)
 .reginfo       0x0000000000000000        0x0 modutils/lib.a(modutils.o)
 .pdr           0x0000000000000000        0x0 modutils/lib.a(modutils.o)
 .text.replace  0x0000000000000000        0x0 modutils/lib.a(modutils.o)
 .text.replace_underscores
                0x0000000000000000        0x0 modutils/lib.a(modutils.o)
 .text.string_to_llist
                0x0000000000000000        0x0 modutils/lib.a(modutils.o)
 .text          0x0000000000000000        0x0 modutils/lib.a(rmmod.o)
 .data          0x0000000000000000        0x0 modutils/lib.a(rmmod.o)
 .bss           0x0000000000000000        0x0 modutils/lib.a(rmmod.o)
 .reginfo       0x0000000000000000        0x0 modutils/lib.a(rmmod.o)
 .pdr           0x0000000000000000        0x0 modutils/lib.a(rmmod.o)
 .text          0x0000000000000000        0x0 networking/lib.a(ftpgetput.o)
 .data          0x0000000000000000        0x0 networking/lib.a(ftpgetput.o)
 .bss           0x0000000000000000        0x0 networking/lib.a(ftpgetput.o)
 .reginfo       0x0000000000000000        0x0 networking/lib.a(ftpgetput.o)
 .pdr           0x0000000000000000        0x0 networking/lib.a(ftpgetput.o)
 .text          0x0000000000000000        0x0 networking/lib.a(ifconfig.o)
 .data          0x0000000000000000        0x0 networking/lib.a(ifconfig.o)
 .bss           0x0000000000000000        0x0 networking/lib.a(ifconfig.o)
 .reginfo       0x0000000000000000        0x0 networking/lib.a(ifconfig.o)
 .pdr           0x0000000000000000        0x0 networking/lib.a(ifconfig.o)
 .text          0x0000000000000000        0x0 networking/lib.a(interface.o)
 .data          0x0000000000000000        0x0 networking/lib.a(interface.o)
 .bss           0x0000000000000000        0x0 networking/lib.a(interface.o)
 .reginfo       0x0000000000000000        0x0 networking/lib.a(interface.o)
 .pdr           0x0000000000000000        0x0 networking/lib.a(interface.o)
 .text.get_aftype
                0x0000000000000000        0x0 networking/lib.a(interface.o)
 .text.get_hwtype
                0x0000000000000000        0x0 networking/lib.a(interface.o)
 .text          0x0000000000000000        0x0 networking/lib.a(ping.o)
 .data          0x0000000000000000        0x0 networking/lib.a(ping.o)
 .bss           0x0000000000000000        0x0 networking/lib.a(ping.o)
 .reginfo       0x0000000000000000        0x0 networking/lib.a(ping.o)
 .pdr           0x0000000000000000        0x0 networking/lib.a(ping.o)
 .text          0x0000000000000000        0x0 networking/lib.a(route.o)
 .data          0x0000000000000000        0x0 networking/lib.a(route.o)
 .bss           0x0000000000000000        0x0 networking/lib.a(route.o)
 .reginfo       0x0000000000000000        0x0 networking/lib.a(route.o)
 .pdr           0x0000000000000000        0x0 networking/lib.a(route.o)
 .text          0x0000000000000000        0x0 networking/lib.a(vconfig.o)
 .data          0x0000000000000000        0x0 networking/lib.a(vconfig.o)
 .bss           0x0000000000000000        0x0 networking/lib.a(vconfig.o)
 .reginfo       0x0000000000000000        0x0 networking/lib.a(vconfig.o)
 .pdr           0x0000000000000000        0x0 networking/lib.a(vconfig.o)
 .text          0x0000000000000000        0x0 networking/lib.a(wget.o)
 .data          0x0000000000000000        0x0 networking/lib.a(wget.o)
 .bss           0x0000000000000000        0x0 networking/lib.a(wget.o)
 .reginfo       0x0000000000000000        0x0 networking/lib.a(wget.o)
 .pdr           0x0000000000000000        0x0 networking/lib.a(wget.o)
 .text          0x0000000000000000        0x0 networking/udhcp/lib.a(dhcpc.o)
 .data          0x0000000000000000        0x0 networking/udhcp/lib.a(dhcpc.o)
 .bss           0x0000000000000000        0x0 networking/udhcp/lib.a(dhcpc.o)
 .reginfo       0x0000000000000000        0x0 networking/udhcp/lib.a(dhcpc.o)
 .pdr           0x0000000000000000        0x0 networking/udhcp/lib.a(dhcpc.o)
 .text          0x0000000000000000        0x0 networking/udhcp/lib.a(domain_codec.o)
 .data          0x0000000000000000        0x0 networking/udhcp/lib.a(domain_codec.o)
 .bss           0x0000000000000000        0x0 networking/udhcp/lib.a(domain_codec.o)
 .reginfo       0x0000000000000000        0x0 networking/udhcp/lib.a(domain_codec.o)
 .pdr           0x0000000000000000        0x0 networking/udhcp/lib.a(domain_codec.o)
 .text          0x0000000000000000        0x0 networking/udhcp/lib.a(packet.o)
 .data          0x0000000000000000        0x0 networking/udhcp/lib.a(packet.o)
 .bss           0x0000000000000000        0x0 networking/udhcp/lib.a(packet.o)
 .reginfo       0x0000000000000000        0x0 networking/udhcp/lib.a(packet.o)
 .pdr           0x0000000000000000        0x0 networking/udhcp/lib.a(packet.o)
 .text          0x0000000000000000        0x0 networking/udhcp/lib.a(signalpipe.o)
 .data          0x0000000000000000        0x0 networking/udhcp/lib.a(signalpipe.o)
 .bss           0x0000000000000000        0x0 networking/udhcp/lib.a(signalpipe.o)
 .reginfo       0x0000000000000000        0x0 networking/udhcp/lib.a(signalpipe.o)
 .pdr           0x0000000000000000        0x0 networking/udhcp/lib.a(signalpipe.o)
 .text          0x0000000000000000        0x0 networking/udhcp/lib.a(socket.o)
 .data          0x0000000000000000        0x0 networking/udhcp/lib.a(socket.o)
 .bss           0x0000000000000000        0x0 networking/udhcp/lib.a(socket.o)
 .reginfo       0x0000000000000000        0x0 networking/udhcp/lib.a(socket.o)
 .pdr           0x0000000000000000        0x0 networking/udhcp/lib.a(socket.o)
 .text          0x0000000000000000        0x0 networking/udhcp/lib.a(common.o)
 .data          0x0000000000000000        0x0 networking/udhcp/lib.a(common.o)
 .bss           0x0000000000000000        0x0 networking/udhcp/lib.a(common.o)
 .reginfo       0x0000000000000000        0x0 networking/udhcp/lib.a(common.o)
 .pdr           0x0000000000000000        0x0 networking/udhcp/lib.a(common.o)
 .text          0x0000000000000000        0x0 procps/lib.a(kill.o)
 .data          0x0000000000000000        0x0 procps/lib.a(kill.o)
 .bss           0x0000000000000000        0x0 procps/lib.a(kill.o)
 .reginfo       0x0000000000000000        0x0 procps/lib.a(kill.o)
 .pdr           0x0000000000000000        0x0 procps/lib.a(kill.o)
 .text          0x0000000000000000        0x0 procps/lib.a(pidof.o)
 .data          0x0000000000000000        0x0 procps/lib.a(pidof.o)
 .bss           0x0000000000000000        0x0 procps/lib.a(pidof.o)
 .reginfo       0x0000000000000000        0x0 procps/lib.a(pidof.o)
 .pdr           0x0000000000000000        0x0 procps/lib.a(pidof.o)
 .text          0x0000000000000000        0x0 procps/lib.a(ps.o)
 .data          0x0000000000000000        0x0 procps/lib.a(ps.o)
 .bss           0x0000000000000000        0x0 procps/lib.a(ps.o)
 .reginfo       0x0000000000000000        0x0 procps/lib.a(ps.o)
 .pdr           0x0000000000000000        0x0 procps/lib.a(ps.o)
 .text          0x0000000000000000        0x0 procps/lib.a(uptime.o)
 .data          0x0000000000000000        0x0 procps/lib.a(uptime.o)
 .bss           0x0000000000000000        0x0 procps/lib.a(uptime.o)
 .reginfo       0x0000000000000000        0x0 procps/lib.a(uptime.o)
 .pdr           0x0000000000000000        0x0 procps/lib.a(uptime.o)
 .text          0x0000000000000000        0x0 shell/lib.a(ash.o)
 .data          0x0000000000000000        0x0 shell/lib.a(ash.o)
 .bss           0x0000000000000000        0x0 shell/lib.a(ash.o)
 .reginfo       0x0000000000000000        0x0 shell/lib.a(ash.o)
 .pdr           0x0000000000000000        0x0 shell/lib.a(ash.o)
 .text          0x0000000000000000        0x0 shell/lib.a(ash_ptr_hack.o)
 .data          0x0000000000000000        0x0 shell/lib.a(ash_ptr_hack.o)
 .bss           0x0000000000000000        0x0 shell/lib.a(ash_ptr_hack.o)
 .reginfo       0x0000000000000000        0x0 shell/lib.a(ash_ptr_hack.o)
 .text          0x0000000000000000        0x0 shell/lib.a(math.o)
 .data          0x0000000000000000        0x0 shell/lib.a(math.o)
 .bss           0x0000000000000000        0x0 shell/lib.a(math.o)
 .reginfo       0x0000000000000000        0x0 shell/lib.a(math.o)
 .pdr           0x0000000000000000        0x0 shell/lib.a(math.o)
 .text          0x0000000000000000        0x0 shell/lib.a(shell_common.o)
 .data          0x0000000000000000        0x0 shell/lib.a(shell_common.o)
 .bss           0x0000000000000000        0x0 shell/lib.a(shell_common.o)
 .reginfo       0x0000000000000000        0x0 shell/lib.a(shell_common.o)
 .pdr           0x0000000000000000        0x0 shell/lib.a(shell_common.o)
 .text          0x0000000000000000        0x0 sysklogd/lib.a(klogd.o)
 .data          0x0000000000000000        0x0 sysklogd/lib.a(klogd.o)
 .bss           0x0000000000000000        0x0 sysklogd/lib.a(klogd.o)
 .reginfo       0x0000000000000000        0x0 sysklogd/lib.a(klogd.o)
 .pdr           0x0000000000000000        0x0 sysklogd/lib.a(klogd.o)
 .text          0x0000000000000000        0x0 sysklogd/lib.a(logread.o)
 .data          0x0000000000000000        0x0 sysklogd/lib.a(logread.o)
 .bss           0x0000000000000000        0x0 sysklogd/lib.a(logread.o)
 .reginfo       0x0000000000000000        0x0 sysklogd/lib.a(logread.o)
 .pdr           0x0000000000000000        0x0 sysklogd/lib.a(logread.o)
 .text          0x0000000000000000        0x0 sysklogd/lib.a(syslogd_and_logger.o)
 .data          0x0000000000000000        0x0 sysklogd/lib.a(syslogd_and_logger.o)
 .bss           0x0000000000000000        0x0 sysklogd/lib.a(syslogd_and_logger.o)
 .reginfo       0x0000000000000000        0x0 sysklogd/lib.a(syslogd_and_logger.o)
 .pdr           0x0000000000000000        0x0 sysklogd/lib.a(syslogd_and_logger.o)
 .text          0x0000000000000000        0x0 util-linux/lib.a(dmesg.o)
 .data          0x0000000000000000        0x0 util-linux/lib.a(dmesg.o)
 .bss           0x0000000000000000        0x0 util-linux/lib.a(dmesg.o)
 .reginfo       0x0000000000000000        0x0 util-linux/lib.a(dmesg.o)
 .pdr           0x0000000000000000        0x0 util-linux/lib.a(dmesg.o)
 .text          0x0000000000000000        0x0 util-linux/lib.a(hwclock.o)
 .data          0x0000000000000000        0x0 util-linux/lib.a(hwclock.o)
 .bss           0x0000000000000000        0x0 util-linux/lib.a(hwclock.o)
 .reginfo       0x0000000000000000        0x0 util-linux/lib.a(hwclock.o)
 .pdr           0x0000000000000000        0x0 util-linux/lib.a(hwclock.o)
 .text          0x0000000000000000        0x0 util-linux/lib.a(mount.o)
 .data          0x0000000000000000        0x0 util-linux/lib.a(mount.o)
 .bss           0x0000000000000000        0x0 util-linux/lib.a(mount.o)
 .reginfo       0x0000000000000000        0x0 util-linux/lib.a(mount.o)
 .pdr           0x0000000000000000        0x0 util-linux/lib.a(mount.o)
 .text          0x0000000000000000        0x0 util-linux/lib.a(switch_root.o)
 .data          0x0000000000000000        0x0 util-linux/lib.a(switch_root.o)
 .bss           0x0000000000000000        0x0 util-linux/lib.a(switch_root.o)
 .reginfo       0x0000000000000000        0x0 util-linux/lib.a(switch_root.o)
 .pdr           0x0000000000000000        0x0 util-linux/lib.a(switch_root.o)
 .text          0x0000000000000000        0x0 util-linux/lib.a(umount.o)
 .data          0x0000000000000000        0x0 util-linux/lib.a(umount.o)
 .bss           0x0000000000000000        0x0 util-linux/lib.a(umount.o)
 .reginfo       0x0000000000000000        0x0 util-linux/lib.a(umount.o)
 .pdr           0x0000000000000000        0x0 util-linux/lib.a(umount.o)
 .text          0x0000000000000000        0x0 archival/lib.a(tar.o)
 .data          0x0000000000000000        0x0 archival/lib.a(tar.o)
 .bss           0x0000000000000000        0x0 archival/lib.a(tar.o)
 .reginfo       0x0000000000000000        0x0 archival/lib.a(tar.o)
 .pdr           0x0000000000000000        0x0 archival/lib.a(tar.o)
 .text          0x0000000000000000        0x0 archival/libarchive/lib.a(data_extract_all.o)
 .data          0x0000000000000000        0x0 archival/libarchive/lib.a(data_extract_all.o)
 .bss           0x0000000000000000        0x0 archival/libarchive/lib.a(data_extract_all.o)
 .reginfo       0x0000000000000000        0x0 archival/libarchive/lib.a(data_extract_all.o)
 .pdr           0x0000000000000000        0x0 archival/libarchive/lib.a(data_extract_all.o)
 .text          0x0000000000000000        0x0 archival/libarchive/lib.a(data_extract_to_command.o)
 .data          0x0000000000000000        0x0 archival/libarchive/lib.a(data_extract_to_command.o)
 .bss           0x0000000000000000        0x0 archival/libarchive/lib.a(data_extract_to_command.o)
 .reginfo       0x0000000000000000        0x0 archival/libarchive/lib.a(data_extract_to_command.o)
 .pdr           0x0000000000000000        0x0 archival/libarchive/lib.a(data_extract_to_command.o)
 .text          0x0000000000000000        0x0 archival/libarchive/lib.a(data_extract_to_stdout.o)
 .data          0x0000000000000000        0x0 archival/libarchive/lib.a(data_extract_to_stdout.o)
 .bss           0x0000000000000000        0x0 archival/libarchive/lib.a(data_extract_to_stdout.o)
 .reginfo       0x0000000000000000        0x0 archival/libarchive/lib.a(data_extract_to_stdout.o)
 .pdr           0x0000000000000000        0x0 archival/libarchive/lib.a(data_extract_to_stdout.o)
 .text          0x0000000000000000        0x0 archival/libarchive/lib.a(data_skip.o)
 .data          0x0000000000000000        0x0 archival/libarchive/lib.a(data_skip.o)
 .bss           0x0000000000000000        0x0 archival/libarchive/lib.a(data_skip.o)
 .reginfo       0x0000000000000000        0x0 archival/libarchive/lib.a(data_skip.o)
 .pdr           0x0000000000000000        0x0 archival/libarchive/lib.a(data_skip.o)
 .text          0x0000000000000000        0x0 archival/libarchive/lib.a(decompress_bunzip2.o)
 .data          0x0000000000000000        0x0 archival/libarchive/lib.a(decompress_bunzip2.o)
 .bss           0x0000000000000000        0x0 archival/libarchive/lib.a(decompress_bunzip2.o)
 .reginfo       0x0000000000000000        0x0 archival/libarchive/lib.a(decompress_bunzip2.o)
 .pdr           0x0000000000000000        0x0 archival/libarchive/lib.a(decompress_bunzip2.o)
 .rodata        0x0000000000000000        0x0 archival/libarchive/lib.a(decompress_bunzip2.o)
 .text.unpack_bz2_stream
                0x0000000000000000        0x0 archival/libarchive/lib.a(decompress_bunzip2.o)
 .text.unpack_bz2_stream_prime
                0x0000000000000000        0x0 archival/libarchive/lib.a(decompress_bunzip2.o)
 .text          0x0000000000000000        0x0 archival/libarchive/lib.a(filter_accept_reject_list.o)
 .data          0x0000000000000000        0x0 archival/libarchive/lib.a(filter_accept_reject_list.o)
 .bss           0x0000000000000000        0x0 archival/libarchive/lib.a(filter_accept_reject_list.o)
 .reginfo       0x0000000000000000        0x0 archival/libarchive/lib.a(filter_accept_reject_list.o)
 .pdr           0x0000000000000000        0x0 archival/libarchive/lib.a(filter_accept_reject_list.o)
 .text          0x0000000000000000        0x0 archival/libarchive/lib.a(find_list_entry.o)
 .data          0x0000000000000000        0x0 archival/libarchive/lib.a(find_list_entry.o)
 .bss           0x0000000000000000        0x0 archival/libarchive/lib.a(find_list_entry.o)
 .reginfo       0x0000000000000000        0x0 archival/libarchive/lib.a(find_list_entry.o)
 .pdr           0x0000000000000000        0x0 archival/libarchive/lib.a(find_list_entry.o)
 .text          0x0000000000000000        0x0 archival/libarchive/lib.a(get_header_tar.o)
 .data          0x0000000000000000        0x0 archival/libarchive/lib.a(get_header_tar.o)
 .bss           0x0000000000000000        0x0 archival/libarchive/lib.a(get_header_tar.o)
 .reginfo       0x0000000000000000        0x0 archival/libarchive/lib.a(get_header_tar.o)
 .pdr           0x0000000000000000        0x0 archival/libarchive/lib.a(get_header_tar.o)
 .text          0x0000000000000000        0x0 archival/libarchive/lib.a(get_header_tar_gz.o)
 .data          0x0000000000000000        0x0 archival/libarchive/lib.a(get_header_tar_gz.o)
 .bss           0x0000000000000000        0x0 archival/libarchive/lib.a(get_header_tar_gz.o)
 .reginfo       0x0000000000000000        0x0 archival/libarchive/lib.a(get_header_tar_gz.o)
 .pdr           0x0000000000000000        0x0 archival/libarchive/lib.a(get_header_tar_gz.o)
 .text          0x0000000000000000        0x0 archival/libarchive/lib.a(header_list.o)
 .data          0x0000000000000000        0x0 archival/libarchive/lib.a(header_list.o)
 .bss           0x0000000000000000        0x0 archival/libarchive/lib.a(header_list.o)
 .reginfo       0x0000000000000000        0x0 archival/libarchive/lib.a(header_list.o)
 .pdr           0x0000000000000000        0x0 archival/libarchive/lib.a(header_list.o)
 .text          0x0000000000000000        0x0 archival/libarchive/lib.a(header_verbose_list.o)
 .data          0x0000000000000000        0x0 archival/libarchive/lib.a(header_verbose_list.o)
 .bss           0x0000000000000000        0x0 archival/libarchive/lib.a(header_verbose_list.o)
 .reginfo       0x0000000000000000        0x0 archival/libarchive/lib.a(header_verbose_list.o)
 .pdr           0x0000000000000000        0x0 archival/libarchive/lib.a(header_verbose_list.o)
 .text          0x0000000000000000        0x0 archival/libarchive/lib.a(init_handle.o)
 .data          0x0000000000000000        0x0 archival/libarchive/lib.a(init_handle.o)
 .bss           0x0000000000000000        0x0 archival/libarchive/lib.a(init_handle.o)
 .reginfo       0x0000000000000000        0x0 archival/libarchive/lib.a(init_handle.o)
 .pdr           0x0000000000000000        0x0 archival/libarchive/lib.a(init_handle.o)
 .text          0x0000000000000000        0x0 archival/libarchive/lib.a(open_transformer.o)
 .data          0x0000000000000000        0x0 archival/libarchive/lib.a(open_transformer.o)
 .bss           0x0000000000000000        0x0 archival/libarchive/lib.a(open_transformer.o)
 .reginfo       0x0000000000000000        0x0 archival/libarchive/lib.a(open_transformer.o)
 .pdr           0x0000000000000000        0x0 archival/libarchive/lib.a(open_transformer.o)
 .text          0x0000000000000000        0x0 archival/libarchive/lib.a(seek_by_jump.o)
 .data          0x0000000000000000        0x0 archival/libarchive/lib.a(seek_by_jump.o)
 .bss           0x0000000000000000        0x0 archival/libarchive/lib.a(seek_by_jump.o)
 .reginfo       0x0000000000000000        0x0 archival/libarchive/lib.a(seek_by_jump.o)
 .pdr           0x0000000000000000        0x0 archival/libarchive/lib.a(seek_by_jump.o)
 .text          0x0000000000000000        0x0 archival/libarchive/lib.a(seek_by_read.o)
 .data          0x0000000000000000        0x0 archival/libarchive/lib.a(seek_by_read.o)
 .bss           0x0000000000000000        0x0 archival/libarchive/lib.a(seek_by_read.o)
 .reginfo       0x0000000000000000        0x0 archival/libarchive/lib.a(seek_by_read.o)
 .pdr           0x0000000000000000        0x0 archival/libarchive/lib.a(seek_by_read.o)
 .text          0x0000000000000000        0x0 archival/libarchive/lib.a(data_align.o)
 .data          0x0000000000000000        0x0 archival/libarchive/lib.a(data_align.o)
 .bss           0x0000000000000000        0x0 archival/libarchive/lib.a(data_align.o)
 .reginfo       0x0000000000000000        0x0 archival/libarchive/lib.a(data_align.o)
 .pdr           0x0000000000000000        0x0 archival/libarchive/lib.a(data_align.o)
 .text          0x0000000000000000        0x0 archival/libarchive/lib.a(decompress_unzip.o)
 .data          0x0000000000000000        0x0 archival/libarchive/lib.a(decompress_unzip.o)
 .bss           0x0000000000000000        0x0 archival/libarchive/lib.a(decompress_unzip.o)
 .reginfo       0x0000000000000000        0x0 archival/libarchive/lib.a(decompress_unzip.o)
 .pdr           0x0000000000000000        0x0 archival/libarchive/lib.a(decompress_unzip.o)
 .text.inflate_unzip
                0x0000000000000000        0x0 archival/libarchive/lib.a(decompress_unzip.o)
 .text          0x0000000000000000        0x0 archival/libarchive/lib.a(filter_accept_all.o)
 .data          0x0000000000000000        0x0 archival/libarchive/lib.a(filter_accept_all.o)
 .bss           0x0000000000000000        0x0 archival/libarchive/lib.a(filter_accept_all.o)
 .reginfo       0x0000000000000000        0x0 archival/libarchive/lib.a(filter_accept_all.o)
 .pdr           0x0000000000000000        0x0 archival/libarchive/lib.a(filter_accept_all.o)
 .text          0x0000000000000000        0x0 archival/libarchive/lib.a(header_skip.o)
 .data          0x0000000000000000        0x0 archival/libarchive/lib.a(header_skip.o)
 .bss           0x0000000000000000        0x0 archival/libarchive/lib.a(header_skip.o)
 .reginfo       0x0000000000000000        0x0 archival/libarchive/lib.a(header_skip.o)
 .pdr           0x0000000000000000        0x0 archival/libarchive/lib.a(header_skip.o)
 .text          0x0000000000000000        0x0 console-tools/lib.a(clear.o)
 .data          0x0000000000000000        0x0 console-tools/lib.a(clear.o)
 .bss           0x0000000000000000        0x0 console-tools/lib.a(clear.o)
 .reginfo       0x0000000000000000        0x0 console-tools/lib.a(clear.o)
 .pdr           0x0000000000000000        0x0 console-tools/lib.a(clear.o)
 .text          0x0000000000000000        0x0 coreutils/lib.a(basename.o)
 .data          0x0000000000000000        0x0 coreutils/lib.a(basename.o)
 .bss           0x0000000000000000        0x0 coreutils/lib.a(basename.o)
 .reginfo       0x0000000000000000        0x0 coreutils/lib.a(basename.o)
 .pdr           0x0000000000000000        0x0 coreutils/lib.a(basename.o)
 .text          0x0000000000000000        0x0 coreutils/lib.a(cat.o)
 .data          0x0000000000000000        0x0 coreutils/lib.a(cat.o)
 .bss           0x0000000000000000        0x0 coreutils/lib.a(cat.o)
 .reginfo       0x0000000000000000        0x0 coreutils/lib.a(cat.o)
 .pdr           0x0000000000000000        0x0 coreutils/lib.a(cat.o)
 .text          0x0000000000000000        0x0 coreutils/lib.a(chmod.o)
 .data          0x0000000000000000        0x0 coreutils/lib.a(chmod.o)
 .bss           0x0000000000000000        0x0 coreutils/lib.a(chmod.o)
 .reginfo       0x0000000000000000        0x0 coreutils/lib.a(chmod.o)
 .pdr           0x0000000000000000        0x0 coreutils/lib.a(chmod.o)
 .text          0x0000000000000000        0x0 coreutils/lib.a(cp.o)
 .data          0x0000000000000000        0x0 coreutils/lib.a(cp.o)
 .bss           0x0000000000000000        0x0 coreutils/lib.a(cp.o)
 .reginfo       0x0000000000000000        0x0 coreutils/lib.a(cp.o)
 .pdr           0x0000000000000000        0x0 coreutils/lib.a(cp.o)
 .text          0x0000000000000000        0x0 coreutils/lib.a(date.o)
 .data          0x0000000000000000        0x0 coreutils/lib.a(date.o)
 .bss           0x0000000000000000        0x0 coreutils/lib.a(date.o)
 .reginfo       0x0000000000000000        0x0 coreutils/lib.a(date.o)
 .pdr           0x0000000000000000        0x0 coreutils/lib.a(date.o)
 .text          0x0000000000000000        0x0 coreutils/lib.a(df.o)
 .data          0x0000000000000000        0x0 coreutils/lib.a(df.o)
 .bss           0x0000000000000000        0x0 coreutils/lib.a(df.o)
 .reginfo       0x0000000000000000        0x0 coreutils/lib.a(df.o)
 .pdr           0x0000000000000000        0x0 coreutils/lib.a(df.o)
 .text          0x0000000000000000        0x0 coreutils/lib.a(echo.o)
 .data          0x0000000000000000        0x0 coreutils/lib.a(echo.o)
 .bss           0x0000000000000000        0x0 coreutils/lib.a(echo.o)
 .reginfo       0x0000000000000000        0x0 coreutils/lib.a(echo.o)
 .pdr           0x0000000000000000        0x0 coreutils/lib.a(echo.o)
 .text          0x0000000000000000        0x0 coreutils/lib.a(ln.o)
 .data          0x0000000000000000        0x0 coreutils/lib.a(ln.o)
 .bss           0x0000000000000000        0x0 coreutils/lib.a(ln.o)
 .reginfo       0x0000000000000000        0x0 coreutils/lib.a(ln.o)
 .pdr           0x0000000000000000        0x0 coreutils/lib.a(ln.o)
 .text          0x0000000000000000        0x0 coreutils/lib.a(ls.o)
 .data          0x0000000000000000        0x0 coreutils/lib.a(ls.o)
 .bss           0x0000000000000000        0x0 coreutils/lib.a(ls.o)
 .reginfo       0x0000000000000000        0x0 coreutils/lib.a(ls.o)
 .pdr           0x0000000000000000        0x0 coreutils/lib.a(ls.o)
 .text          0x0000000000000000        0x0 coreutils/lib.a(mkdir.o)
 .data          0x0000000000000000        0x0 coreutils/lib.a(mkdir.o)
 .bss           0x0000000000000000        0x0 coreutils/lib.a(mkdir.o)
 .reginfo       0x0000000000000000        0x0 coreutils/lib.a(mkdir.o)
 .pdr           0x0000000000000000        0x0 coreutils/lib.a(mkdir.o)
 .text          0x0000000000000000        0x0 coreutils/lib.a(mknod.o)
 .data          0x0000000000000000        0x0 coreutils/lib.a(mknod.o)
 .bss           0x0000000000000000        0x0 coreutils/lib.a(mknod.o)
 .reginfo       0x0000000000000000        0x0 coreutils/lib.a(mknod.o)
 .pdr           0x0000000000000000        0x0 coreutils/lib.a(mknod.o)
 .text          0x0000000000000000        0x0 coreutils/lib.a(mv.o)
 .data          0x0000000000000000        0x0 coreutils/lib.a(mv.o)
 .bss           0x0000000000000000        0x0 coreutils/lib.a(mv.o)
 .reginfo       0x0000000000000000        0x0 coreutils/lib.a(mv.o)
 .pdr           0x0000000000000000        0x0 coreutils/lib.a(mv.o)
 .text          0x0000000000000000        0x0 coreutils/lib.a(printf.o)
 .data          0x0000000000000000        0x0 coreutils/lib.a(printf.o)
 .bss           0x0000000000000000        0x0 coreutils/lib.a(printf.o)
 .reginfo       0x0000000000000000        0x0 coreutils/lib.a(printf.o)
 .pdr           0x0000000000000000        0x0 coreutils/lib.a(printf.o)
 .text          0x0000000000000000        0x0 coreutils/lib.a(pwd.o)
 .data          0x0000000000000000        0x0 coreutils/lib.a(pwd.o)
 .bss           0x0000000000000000        0x0 coreutils/lib.a(pwd.o)
 .reginfo       0x0000000000000000        0x0 coreutils/lib.a(pwd.o)
 .pdr           0x0000000000000000        0x0 coreutils/lib.a(pwd.o)
 .text          0x0000000000000000        0x0 coreutils/lib.a(rm.o)
 .data          0x0000000000000000        0x0 coreutils/lib.a(rm.o)
 .bss           0x0000000000000000        0x0 coreutils/lib.a(rm.o)
 .reginfo       0x0000000000000000        0x0 coreutils/lib.a(rm.o)
 .pdr           0x0000000000000000        0x0 coreutils/lib.a(rm.o)
 .text          0x0000000000000000        0x0 coreutils/lib.a(sleep.o)
 .data          0x0000000000000000        0x0 coreutils/lib.a(sleep.o)
 .bss           0x0000000000000000        0x0 coreutils/lib.a(sleep.o)
 .reginfo       0x0000000000000000        0x0 coreutils/lib.a(sleep.o)
 .pdr           0x0000000000000000        0x0 coreutils/lib.a(sleep.o)
 .text          0x0000000000000000        0x0 coreutils/lib.a(sync.o)
 .data          0x0000000000000000        0x0 coreutils/lib.a(sync.o)
 .bss           0x0000000000000000        0x0 coreutils/lib.a(sync.o)
 .reginfo       0x0000000000000000        0x0 coreutils/lib.a(sync.o)
 .pdr           0x0000000000000000        0x0 coreutils/lib.a(sync.o)
 .text          0x0000000000000000        0x0 coreutils/lib.a(test.o)
 .data          0x0000000000000000        0x0 coreutils/lib.a(test.o)
 .bss           0x0000000000000000        0x0 coreutils/lib.a(test.o)
 .reginfo       0x0000000000000000        0x0 coreutils/lib.a(test.o)
 .pdr           0x0000000000000000        0x0 coreutils/lib.a(test.o)
 .text          0x0000000000000000        0x0 coreutils/lib.a(test_ptr_hack.o)
 .data          0x0000000000000000        0x0 coreutils/lib.a(test_ptr_hack.o)
 .bss           0x0000000000000000        0x0 coreutils/lib.a(test_ptr_hack.o)
 .reginfo       0x0000000000000000        0x0 coreutils/lib.a(test_ptr_hack.o)
 .text          0x0000000000000000        0x0 coreutils/lib.a(touch.o)
 .data          0x0000000000000000        0x0 coreutils/lib.a(touch.o)
 .bss           0x0000000000000000        0x0 coreutils/lib.a(touch.o)
 .reginfo       0x0000000000000000        0x0 coreutils/lib.a(touch.o)
 .pdr           0x0000000000000000        0x0 coreutils/lib.a(touch.o)
 .text          0x0000000000000000        0x0 coreutils/lib.a(uname.o)
 .data          0x0000000000000000        0x0 coreutils/lib.a(uname.o)
 .bss           0x0000000000000000        0x0 coreutils/lib.a(uname.o)
 .reginfo       0x0000000000000000        0x0 coreutils/lib.a(uname.o)
 .pdr           0x0000000000000000        0x0 coreutils/lib.a(uname.o)
 .text          0x0000000000000000        0x0 coreutils/libcoreutils/lib.a(cp_mv_stat.o)
 .data          0x0000000000000000        0x0 coreutils/libcoreutils/lib.a(cp_mv_stat.o)
 .bss           0x0000000000000000        0x0 coreutils/libcoreutils/lib.a(cp_mv_stat.o)
 .reginfo       0x0000000000000000        0x0 coreutils/libcoreutils/lib.a(cp_mv_stat.o)
 .pdr           0x0000000000000000        0x0 coreutils/libcoreutils/lib.a(cp_mv_stat.o)
 .text          0x0000000000000000        0x0 coreutils/libcoreutils/lib.a(getopt_mk_fifo_nod.o)
 .data          0x0000000000000000        0x0 coreutils/libcoreutils/lib.a(getopt_mk_fifo_nod.o)
 .bss           0x0000000000000000        0x0 coreutils/libcoreutils/lib.a(getopt_mk_fifo_nod.o)
 .reginfo       0x0000000000000000        0x0 coreutils/libcoreutils/lib.a(getopt_mk_fifo_nod.o)
 .pdr           0x0000000000000000        0x0 coreutils/libcoreutils/lib.a(getopt_mk_fifo_nod.o)
 .text          0x0000000000000000        0x0 init/lib.a(halt.o)
 .data          0x0000000000000000        0x0 init/lib.a(halt.o)
 .bss           0x0000000000000000        0x0 init/lib.a(halt.o)
 .reginfo       0x0000000000000000        0x0 init/lib.a(halt.o)
 .pdr           0x0000000000000000        0x0 init/lib.a(halt.o)
 .text          0x0000000000000000        0x0 init/lib.a(init.o)
 .data          0x0000000000000000        0x0 init/lib.a(init.o)
 .bss           0x0000000000000000        0x0 init/lib.a(init.o)
 .reginfo       0x0000000000000000        0x0 init/lib.a(init.o)
 .pdr           0x0000000000000000        0x0 init/lib.a(init.o)
 .data.log_console
                0x0000000000000000        0x0 init/lib.a(init.o)
 .text          0x0000000000000000        0x0 libbb/lib.a(ask_confirmation.o)
 .data          0x0000000000000000        0x0 libbb/lib.a(ask_confirmation.o)
 .bss           0x0000000000000000        0x0 libbb/lib.a(ask_confirmation.o)
 .reginfo       0x0000000000000000        0x0 libbb/lib.a(ask_confirmation.o)
 .pdr           0x0000000000000000        0x0 libbb/lib.a(ask_confirmation.o)
 .text          0x0000000000000000        0x0 libbb/lib.a(bb_pwd.o)
 .data          0x0000000000000000        0x0 libbb/lib.a(bb_pwd.o)
 .bss           0x0000000000000000        0x0 libbb/lib.a(bb_pwd.o)
 .reginfo       0x0000000000000000        0x0 libbb/lib.a(bb_pwd.o)
 .pdr           0x0000000000000000        0x0 libbb/lib.a(bb_pwd.o)
 .rodata        0x0000000000000000        0x0 libbb/lib.a(bb_pwd.o)
 .text.xgetpwnam
                0x0000000000000000        0x0 libbb/lib.a(bb_pwd.o)
 .text.xgetgrnam
                0x0000000000000000        0x0 libbb/lib.a(bb_pwd.o)
 .text.xgetpwuid
                0x0000000000000000        0x0 libbb/lib.a(bb_pwd.o)
 .text.xgetgrgid
                0x0000000000000000        0x0 libbb/lib.a(bb_pwd.o)
 .text.xuid2uname
                0x0000000000000000        0x0 libbb/lib.a(bb_pwd.o)
 .text.xgid2group
                0x0000000000000000        0x0 libbb/lib.a(bb_pwd.o)
 .text.xuname2uid
                0x0000000000000000        0x0 libbb/lib.a(bb_pwd.o)
 .text.xgroup2gid
                0x0000000000000000        0x0 libbb/lib.a(bb_pwd.o)
 .text.get_ug_id
                0x0000000000000000        0x0 libbb/lib.a(bb_pwd.o)
 .text          0x0000000000000000        0x0 libbb/lib.a(compare_string_array.o)
 .data          0x0000000000000000        0x0 libbb/lib.a(compare_string_array.o)
 .bss           0x0000000000000000        0x0 libbb/lib.a(compare_string_array.o)
 .reginfo       0x0000000000000000        0x0 libbb/lib.a(compare_string_array.o)
 .pdr           0x0000000000000000        0x0 libbb/lib.a(compare_string_array.o)
 .text.index_in_str_array
                0x0000000000000000        0x0 libbb/lib.a(compare_string_array.o)
 .text.nth_string
                0x0000000000000000        0x0 libbb/lib.a(compare_string_array.o)
 .text          0x0000000000000000        0x0 libbb/lib.a(concat_path_file.o)
 .data          0x0000000000000000        0x0 libbb/lib.a(concat_path_file.o)
 .bss           0x0000000000000000        0x0 libbb/lib.a(concat_path_file.o)
 .reginfo       0x0000000000000000        0x0 libbb/lib.a(concat_path_file.o)
 .pdr           0x0000000000000000        0x0 libbb/lib.a(concat_path_file.o)
 .text          0x0000000000000000        0x0 libbb/lib.a(copy_file.o)
 .data          0x0000000000000000        0x0 libbb/lib.a(copy_file.o)
 .bss           0x0000000000000000        0x0 libbb/lib.a(copy_file.o)
 .reginfo       0x0000000000000000        0x0 libbb/lib.a(copy_file.o)
 .pdr           0x0000000000000000        0x0 libbb/lib.a(copy_file.o)
 .text          0x0000000000000000        0x0 libbb/lib.a(crc32.o)
 .data          0x0000000000000000        0x0 libbb/lib.a(crc32.o)
 .bss           0x0000000000000000        0x0 libbb/lib.a(crc32.o)
 .reginfo       0x0000000000000000        0x0 libbb/lib.a(crc32.o)
 .pdr           0x0000000000000000        0x0 libbb/lib.a(crc32.o)
 .text.crc32_block_endian1
                0x0000000000000000        0x0 libbb/lib.a(crc32.o)
 .bss.global_crc32_table
                0x0000000000000000        0x0 libbb/lib.a(crc32.o)
 .text          0x0000000000000000        0x0 libbb/lib.a(create_icmp_socket.o)
 .data          0x0000000000000000        0x0 libbb/lib.a(create_icmp_socket.o)
 .bss           0x0000000000000000        0x0 libbb/lib.a(create_icmp_socket.o)
 .reginfo       0x0000000000000000        0x0 libbb/lib.a(create_icmp_socket.o)
 .pdr           0x0000000000000000        0x0 libbb/lib.a(create_icmp_socket.o)
 .text          0x0000000000000000        0x0 libbb/lib.a(device_open.o)
 .data          0x0000000000000000        0x0 libbb/lib.a(device_open.o)
 .bss           0x0000000000000000        0x0 libbb/lib.a(device_open.o)
 .reginfo       0x0000000000000000        0x0 libbb/lib.a(device_open.o)
 .pdr           0x0000000000000000        0x0 libbb/lib.a(device_open.o)
 .text          0x0000000000000000        0x0 libbb/lib.a(execable.o)
 .data          0x0000000000000000        0x0 libbb/lib.a(execable.o)
 .bss           0x0000000000000000        0x0 libbb/lib.a(execable.o)
 .reginfo       0x0000000000000000        0x0 libbb/lib.a(execable.o)
 .pdr           0x0000000000000000        0x0 libbb/lib.a(execable.o)
 .text.execable_file
                0x0000000000000000        0x0 libbb/lib.a(execable.o)
 .text.find_execable
                0x0000000000000000        0x0 libbb/lib.a(execable.o)
 .rodata        0x0000000000000000        0x0 libbb/lib.a(execable.o)
 .text.exists_execable
                0x0000000000000000        0x0 libbb/lib.a(execable.o)
 .text.BB_EXECVP_or_die
                0x0000000000000000        0x0 libbb/lib.a(execable.o)
 .text          0x0000000000000000        0x0 libbb/lib.a(fflush_stdout_and_exit.o)
 .data          0x0000000000000000        0x0 libbb/lib.a(fflush_stdout_and_exit.o)
 .bss           0x0000000000000000        0x0 libbb/lib.a(fflush_stdout_and_exit.o)
 .reginfo       0x0000000000000000        0x0 libbb/lib.a(fflush_stdout_and_exit.o)
 .pdr           0x0000000000000000        0x0 libbb/lib.a(fflush_stdout_and_exit.o)
 .text          0x0000000000000000        0x0 libbb/lib.a(find_mount_point.o)
 .data          0x0000000000000000        0x0 libbb/lib.a(find_mount_point.o)
 .bss           0x0000000000000000        0x0 libbb/lib.a(find_mount_point.o)
 .reginfo       0x0000000000000000        0x0 libbb/lib.a(find_mount_point.o)
 .pdr           0x0000000000000000        0x0 libbb/lib.a(find_mount_point.o)
 .text          0x0000000000000000        0x0 libbb/lib.a(find_pid_by_name.o)
 .data          0x0000000000000000        0x0 libbb/lib.a(find_pid_by_name.o)
 .bss           0x0000000000000000        0x0 libbb/lib.a(find_pid_by_name.o)
 .reginfo       0x0000000000000000        0x0 libbb/lib.a(find_pid_by_name.o)
 .pdr           0x0000000000000000        0x0 libbb/lib.a(find_pid_by_name.o)
 .text          0x0000000000000000        0x0 libbb/lib.a(get_line_from_file.o)
 .data          0x0000000000000000        0x0 libbb/lib.a(get_line_from_file.o)
 .bss           0x0000000000000000        0x0 libbb/lib.a(get_line_from_file.o)
 .reginfo       0x0000000000000000        0x0 libbb/lib.a(get_line_from_file.o)
 .pdr           0x0000000000000000        0x0 libbb/lib.a(get_line_from_file.o)
 .text.xmalloc_fgets
                0x0000000000000000        0x0 libbb/lib.a(get_line_from_file.o)
 .text          0x0000000000000000        0x0 libbb/lib.a(get_shell_name.o)
 .data          0x0000000000000000        0x0 libbb/lib.a(get_shell_name.o)
 .bss           0x0000000000000000        0x0 libbb/lib.a(get_shell_name.o)
 .reginfo       0x0000000000000000        0x0 libbb/lib.a(get_shell_name.o)
 .pdr           0x0000000000000000        0x0 libbb/lib.a(get_shell_name.o)
 .text          0x0000000000000000        0x0 libbb/lib.a(getopt32.o)
 .data          0x0000000000000000        0x0 libbb/lib.a(getopt32.o)
 .bss           0x0000000000000000        0x0 libbb/lib.a(getopt32.o)
 .reginfo       0x0000000000000000        0x0 libbb/lib.a(getopt32.o)
 .pdr           0x0000000000000000        0x0 libbb/lib.a(getopt32.o)
 .text          0x0000000000000000        0x0 libbb/lib.a(human_readable.o)
 .data          0x0000000000000000        0x0 libbb/lib.a(human_readable.o)
 .bss           0x0000000000000000        0x0 libbb/lib.a(human_readable.o)
 .reginfo       0x0000000000000000        0x0 libbb/lib.a(human_readable.o)
 .pdr           0x0000000000000000        0x0 libbb/lib.a(human_readable.o)
 .text.smart_ulltoa4
                0x0000000000000000        0x0 libbb/lib.a(human_readable.o)
 .text          0x0000000000000000        0x0 libbb/lib.a(inet_common.o)
 .data          0x0000000000000000        0x0 libbb/lib.a(inet_common.o)
 .bss           0x0000000000000000        0x0 libbb/lib.a(inet_common.o)
 .reginfo       0x0000000000000000        0x0 libbb/lib.a(inet_common.o)
 .pdr           0x0000000000000000        0x0 libbb/lib.a(inet_common.o)
 .text          0x0000000000000000        0x0 libbb/lib.a(info_msg.o)
 .data          0x0000000000000000        0x0 libbb/lib.a(info_msg.o)
 .bss           0x0000000000000000        0x0 libbb/lib.a(info_msg.o)
 .reginfo       0x0000000000000000        0x0 libbb/lib.a(info_msg.o)
 .pdr           0x0000000000000000        0x0 libbb/lib.a(info_msg.o)
 .text          0x0000000000000000        0x0 libbb/lib.a(inode_hash.o)
 .data          0x0000000000000000        0x0 libbb/lib.a(inode_hash.o)
 .bss           0x0000000000000000        0x0 libbb/lib.a(inode_hash.o)
 .reginfo       0x0000000000000000        0x0 libbb/lib.a(inode_hash.o)
 .pdr           0x0000000000000000        0x0 libbb/lib.a(inode_hash.o)
 .text          0x0000000000000000        0x0 libbb/lib.a(isdirectory.o)
 .data          0x0000000000000000        0x0 libbb/lib.a(isdirectory.o)
 .bss           0x0000000000000000        0x0 libbb/lib.a(isdirectory.o)
 .reginfo       0x0000000000000000        0x0 libbb/lib.a(isdirectory.o)
 .pdr           0x0000000000000000        0x0 libbb/lib.a(isdirectory.o)
 .text          0x0000000000000000        0x0 libbb/lib.a(lineedit.o)
 .data          0x0000000000000000        0x0 libbb/lib.a(lineedit.o)
 .bss           0x0000000000000000        0x0 libbb/lib.a(lineedit.o)
 .reginfo       0x0000000000000000        0x0 libbb/lib.a(lineedit.o)
 .pdr           0x0000000000000000        0x0 libbb/lib.a(lineedit.o)
 .text.size_from_HISTFILESIZE
                0x0000000000000000        0x0 libbb/lib.a(lineedit.o)
 .text          0x0000000000000000        0x0 libbb/lib.a(lineedit_ptr_hack.o)
 .data          0x0000000000000000        0x0 libbb/lib.a(lineedit_ptr_hack.o)
 .bss           0x0000000000000000        0x0 libbb/lib.a(lineedit_ptr_hack.o)
 .reginfo       0x0000000000000000        0x0 libbb/lib.a(lineedit_ptr_hack.o)
 .text          0x0000000000000000        0x0 libbb/lib.a(llist.o)
 .data          0x0000000000000000        0x0 libbb/lib.a(llist.o)
 .bss           0x0000000000000000        0x0 libbb/lib.a(llist.o)
 .reginfo       0x0000000000000000        0x0 libbb/lib.a(llist.o)
 .pdr           0x0000000000000000        0x0 libbb/lib.a(llist.o)
 .text.llist_unlink
                0x0000000000000000        0x0 libbb/lib.a(llist.o)
 .text.llist_free
                0x0000000000000000        0x0 libbb/lib.a(llist.o)
 .text.llist_rev
                0x0000000000000000        0x0 libbb/lib.a(llist.o)
 .text.llist_find_str
                0x0000000000000000        0x0 libbb/lib.a(llist.o)
 .text          0x0000000000000000        0x0 libbb/lib.a(login.o)
 .data          0x0000000000000000        0x0 libbb/lib.a(login.o)
 .bss           0x0000000000000000        0x0 libbb/lib.a(login.o)
 .reginfo       0x0000000000000000        0x0 libbb/lib.a(login.o)
 .pdr           0x0000000000000000        0x0 libbb/lib.a(login.o)
 .rodata.fmtstr_t
                0x0000000000000000        0x0 libbb/lib.a(login.o)
 .rodata.fmtstr_d
                0x0000000000000000        0x0 libbb/lib.a(login.o)
 .rodata        0x0000000000000000        0x0 libbb/lib.a(login.o)
 .text.print_login_issue
                0x0000000000000000        0x0 libbb/lib.a(login.o)
 .text.print_login_prompt
                0x0000000000000000        0x0 libbb/lib.a(login.o)
 .text          0x0000000000000000        0x0 libbb/lib.a(loop.o)
 .data          0x0000000000000000        0x0 libbb/lib.a(loop.o)
 .bss           0x0000000000000000        0x0 libbb/lib.a(loop.o)
 .reginfo       0x0000000000000000        0x0 libbb/lib.a(loop.o)
 .pdr           0x0000000000000000        0x0 libbb/lib.a(loop.o)
 .text.query_loop
                0x0000000000000000        0x0 libbb/lib.a(loop.o)
 .text          0x0000000000000000        0x0 libbb/lib.a(make_directory.o)
 .data          0x0000000000000000        0x0 libbb/lib.a(make_directory.o)
 .bss           0x0000000000000000        0x0 libbb/lib.a(make_directory.o)
 .reginfo       0x0000000000000000        0x0 libbb/lib.a(make_directory.o)
 .pdr           0x0000000000000000        0x0 libbb/lib.a(make_directory.o)
 .text          0x0000000000000000        0x0 libbb/lib.a(makedev.o)
 .data          0x0000000000000000        0x0 libbb/lib.a(makedev.o)
 .bss           0x0000000000000000        0x0 libbb/lib.a(makedev.o)
 .reginfo       0x0000000000000000        0x0 libbb/lib.a(makedev.o)
 .pdr           0x0000000000000000        0x0 libbb/lib.a(makedev.o)
 .text          0x0000000000000000        0x0 libbb/lib.a(match_fstype.o)
 .data          0x0000000000000000        0x0 libbb/lib.a(match_fstype.o)
 .bss           0x0000000000000000        0x0 libbb/lib.a(match_fstype.o)
 .reginfo       0x0000000000000000        0x0 libbb/lib.a(match_fstype.o)
 .pdr           0x0000000000000000        0x0 libbb/lib.a(match_fstype.o)
 .text          0x0000000000000000        0x0 libbb/lib.a(mode_string.o)
 .data          0x0000000000000000        0x0 libbb/lib.a(mode_string.o)
 .bss           0x0000000000000000        0x0 libbb/lib.a(mode_string.o)
 .reginfo       0x0000000000000000        0x0 libbb/lib.a(mode_string.o)
 .pdr           0x0000000000000000        0x0 libbb/lib.a(mode_string.o)
 .text          0x0000000000000000        0x0 libbb/lib.a(parse_config.o)
 .data          0x0000000000000000        0x0 libbb/lib.a(parse_config.o)
 .bss           0x0000000000000000        0x0 libbb/lib.a(parse_config.o)
 .reginfo       0x0000000000000000        0x0 libbb/lib.a(parse_config.o)
 .pdr           0x0000000000000000        0x0 libbb/lib.a(parse_config.o)
 .text          0x0000000000000000        0x0 libbb/lib.a(parse_mode.o)
 .data          0x0000000000000000        0x0 libbb/lib.a(parse_mode.o)
 .bss           0x0000000000000000        0x0 libbb/lib.a(parse_mode.o)
 .reginfo       0x0000000000000000        0x0 libbb/lib.a(parse_mode.o)
 .pdr           0x0000000000000000        0x0 libbb/lib.a(parse_mode.o)
 .text          0x0000000000000000        0x0 libbb/lib.a(percent_decode.o)
 .data          0x0000000000000000        0x0 libbb/lib.a(percent_decode.o)
 .bss           0x0000000000000000        0x0 libbb/lib.a(percent_decode.o)
 .reginfo       0x0000000000000000        0x0 libbb/lib.a(percent_decode.o)
 .pdr           0x0000000000000000        0x0 libbb/lib.a(percent_decode.o)
 .text          0x0000000000000000        0x0 libbb/lib.a(perror_nomsg_and_die.o)
 .data          0x0000000000000000        0x0 libbb/lib.a(perror_nomsg_and_die.o)
 .bss           0x0000000000000000        0x0 libbb/lib.a(perror_nomsg_and_die.o)
 .reginfo       0x0000000000000000        0x0 libbb/lib.a(perror_nomsg_and_die.o)
 .pdr           0x0000000000000000        0x0 libbb/lib.a(perror_nomsg_and_die.o)
 .text          0x0000000000000000        0x0 libbb/lib.a(pidfile.o)
 .data          0x0000000000000000        0x0 libbb/lib.a(pidfile.o)
 .bss           0x0000000000000000        0x0 libbb/lib.a(pidfile.o)
 .reginfo       0x0000000000000000        0x0 libbb/lib.a(pidfile.o)
 .pdr           0x0000000000000000        0x0 libbb/lib.a(pidfile.o)
 .text          0x0000000000000000        0x0 libbb/lib.a(printable_string.o)
 .data          0x0000000000000000        0x0 libbb/lib.a(printable_string.o)
 .bss           0x0000000000000000        0x0 libbb/lib.a(printable_string.o)
 .reginfo       0x0000000000000000        0x0 libbb/lib.a(printable_string.o)
 .pdr           0x0000000000000000        0x0 libbb/lib.a(printable_string.o)
 .text          0x0000000000000000        0x0 libbb/lib.a(process_escape_sequence.o)
 .data          0x0000000000000000        0x0 libbb/lib.a(process_escape_sequence.o)
 .bss           0x0000000000000000        0x0 libbb/lib.a(process_escape_sequence.o)
 .reginfo       0x0000000000000000        0x0 libbb/lib.a(process_escape_sequence.o)
 .pdr           0x0000000000000000        0x0 libbb/lib.a(process_escape_sequence.o)
 .text.strcpy_and_process_escape_sequences
                0x0000000000000000        0x0 libbb/lib.a(process_escape_sequence.o)
 .text          0x0000000000000000        0x0 libbb/lib.a(procps.o)
 .data          0x0000000000000000        0x0 libbb/lib.a(procps.o)
 .bss           0x0000000000000000        0x0 libbb/lib.a(procps.o)
 .reginfo       0x0000000000000000        0x0 libbb/lib.a(procps.o)
 .pdr           0x0000000000000000        0x0 libbb/lib.a(procps.o)
 .text.clear_cache
                0x0000000000000000        0x0 libbb/lib.a(procps.o)
 .text.clear_username_cache
                0x0000000000000000        0x0 libbb/lib.a(procps.o)
 .text          0x0000000000000000        0x0 libbb/lib.a(progress.o)
 .data          0x0000000000000000        0x0 libbb/lib.a(progress.o)
 .bss           0x0000000000000000        0x0 libbb/lib.a(progress.o)
 .reginfo       0x0000000000000000        0x0 libbb/lib.a(progress.o)
 .pdr           0x0000000000000000        0x0 libbb/lib.a(progress.o)
 .text          0x0000000000000000        0x0 libbb/lib.a(read_key.o)
 .data          0x0000000000000000        0x0 libbb/lib.a(read_key.o)
 .bss           0x0000000000000000        0x0 libbb/lib.a(read_key.o)
 .reginfo       0x0000000000000000        0x0 libbb/lib.a(read_key.o)
 .pdr           0x0000000000000000        0x0 libbb/lib.a(read_key.o)
 .text.read_key_ungets
                0x0000000000000000        0x0 libbb/lib.a(read_key.o)
 .text          0x0000000000000000        0x0 libbb/lib.a(read_printf.o)
 .data          0x0000000000000000        0x0 libbb/lib.a(read_printf.o)
 .bss           0x0000000000000000        0x0 libbb/lib.a(read_printf.o)
 .reginfo       0x0000000000000000        0x0 libbb/lib.a(read_printf.o)
 .pdr           0x0000000000000000        0x0 libbb/lib.a(read_printf.o)
 .text.xmalloc_reads
                0x0000000000000000        0x0 libbb/lib.a(read_printf.o)
 .text.xread_char
                0x0000000000000000        0x0 libbb/lib.a(read_printf.o)
 .text.xmalloc_xopen_read_close
                0x0000000000000000        0x0 libbb/lib.a(read_printf.o)
 .text          0x0000000000000000        0x0 libbb/lib.a(recursive_action.o)
 .data          0x0000000000000000        0x0 libbb/lib.a(recursive_action.o)
 .bss           0x0000000000000000        0x0 libbb/lib.a(recursive_action.o)
 .reginfo       0x0000000000000000        0x0 libbb/lib.a(recursive_action.o)
 .pdr           0x0000000000000000        0x0 libbb/lib.a(recursive_action.o)
 .text          0x0000000000000000        0x0 libbb/lib.a(remove_file.o)
 .data          0x0000000000000000        0x0 libbb/lib.a(remove_file.o)
 .bss           0x0000000000000000        0x0 libbb/lib.a(remove_file.o)
 .reginfo       0x0000000000000000        0x0 libbb/lib.a(remove_file.o)
 .pdr           0x0000000000000000        0x0 libbb/lib.a(remove_file.o)
 .text          0x0000000000000000        0x0 libbb/lib.a(rtc.o)
 .data          0x0000000000000000        0x0 libbb/lib.a(rtc.o)
 .bss           0x0000000000000000        0x0 libbb/lib.a(rtc.o)
 .reginfo       0x0000000000000000        0x0 libbb/lib.a(rtc.o)
 .pdr           0x0000000000000000        0x0 libbb/lib.a(rtc.o)
 .text          0x0000000000000000        0x0 libbb/lib.a(safe_gethostname.o)
 .data          0x0000000000000000        0x0 libbb/lib.a(safe_gethostname.o)
 .bss           0x0000000000000000        0x0 libbb/lib.a(safe_gethostname.o)
 .reginfo       0x0000000000000000        0x0 libbb/lib.a(safe_gethostname.o)
 .pdr           0x0000000000000000        0x0 libbb/lib.a(safe_gethostname.o)
 .text.safe_getdomainname
                0x0000000000000000        0x0 libbb/lib.a(safe_gethostname.o)
 .text          0x0000000000000000        0x0 libbb/lib.a(safe_poll.o)
 .data          0x0000000000000000        0x0 libbb/lib.a(safe_poll.o)
 .bss           0x0000000000000000        0x0 libbb/lib.a(safe_poll.o)
 .reginfo       0x0000000000000000        0x0 libbb/lib.a(safe_poll.o)
 .pdr           0x0000000000000000        0x0 libbb/lib.a(safe_poll.o)
 .text          0x0000000000000000        0x0 libbb/lib.a(safe_strncpy.o)
 .data          0x0000000000000000        0x0 libbb/lib.a(safe_strncpy.o)
 .bss           0x0000000000000000        0x0 libbb/lib.a(safe_strncpy.o)
 .reginfo       0x0000000000000000        0x0 libbb/lib.a(safe_strncpy.o)
 .pdr           0x0000000000000000        0x0 libbb/lib.a(safe_strncpy.o)
 .text          0x0000000000000000        0x0 libbb/lib.a(signals.o)
 .data          0x0000000000000000        0x0 libbb/lib.a(signals.o)
 .bss           0x0000000000000000        0x0 libbb/lib.a(signals.o)
 .reginfo       0x0000000000000000        0x0 libbb/lib.a(signals.o)
 .pdr           0x0000000000000000        0x0 libbb/lib.a(signals.o)
 .text.sig_block
                0x0000000000000000        0x0 libbb/lib.a(signals.o)
 .text.wait_for_any_sig
                0x0000000000000000        0x0 libbb/lib.a(signals.o)
 .text.signal_SA_RESTART_empty_mask
                0x0000000000000000        0x0 libbb/lib.a(signals.o)
 .text          0x0000000000000000        0x0 libbb/lib.a(simplify_path.o)
 .data          0x0000000000000000        0x0 libbb/lib.a(simplify_path.o)
 .bss           0x0000000000000000        0x0 libbb/lib.a(simplify_path.o)
 .reginfo       0x0000000000000000        0x0 libbb/lib.a(simplify_path.o)
 .pdr           0x0000000000000000        0x0 libbb/lib.a(simplify_path.o)
 .text          0x0000000000000000        0x0 libbb/lib.a(skip_whitespace.o)
 .data          0x0000000000000000        0x0 libbb/lib.a(skip_whitespace.o)
 .bss           0x0000000000000000        0x0 libbb/lib.a(skip_whitespace.o)
 .reginfo       0x0000000000000000        0x0 libbb/lib.a(skip_whitespace.o)
 .pdr           0x0000000000000000        0x0 libbb/lib.a(skip_whitespace.o)
 .text          0x0000000000000000        0x0 libbb/lib.a(str_tolower.o)
 .data          0x0000000000000000        0x0 libbb/lib.a(str_tolower.o)
 .bss           0x0000000000000000        0x0 libbb/lib.a(str_tolower.o)
 .reginfo       0x0000000000000000        0x0 libbb/lib.a(str_tolower.o)
 .pdr           0x0000000000000000        0x0 libbb/lib.a(str_tolower.o)
 .text          0x0000000000000000        0x0 libbb/lib.a(u_signal_names.o)
 .data          0x0000000000000000        0x0 libbb/lib.a(u_signal_names.o)
 .bss           0x0000000000000000        0x0 libbb/lib.a(u_signal_names.o)
 .reginfo       0x0000000000000000        0x0 libbb/lib.a(u_signal_names.o)
 .pdr           0x0000000000000000        0x0 libbb/lib.a(u_signal_names.o)
 .text          0x0000000000000000        0x0 libbb/lib.a(uuencode.o)
 .data          0x0000000000000000        0x0 libbb/lib.a(uuencode.o)
 .bss           0x0000000000000000        0x0 libbb/lib.a(uuencode.o)
 .reginfo       0x0000000000000000        0x0 libbb/lib.a(uuencode.o)
 .pdr           0x0000000000000000        0x0 libbb/lib.a(uuencode.o)
 .rodata.bb_uuenc_tbl_std
                0x0000000000000000        0x0 libbb/lib.a(uuencode.o)
 .rodata        0x0000000000000000        0x0 libbb/lib.a(uuencode.o)
 .text.read_base64
                0x0000000000000000        0x0 libbb/lib.a(uuencode.o)
 .text          0x0000000000000000        0x0 libbb/lib.a(vfork_daemon_rexec.o)
 .data          0x0000000000000000        0x0 libbb/lib.a(vfork_daemon_rexec.o)
 .bss           0x0000000000000000        0x0 libbb/lib.a(vfork_daemon_rexec.o)
 .reginfo       0x0000000000000000        0x0 libbb/lib.a(vfork_daemon_rexec.o)
 .pdr           0x0000000000000000        0x0 libbb/lib.a(vfork_daemon_rexec.o)
 .text.xspawn   0x0000000000000000        0x0 libbb/lib.a(vfork_daemon_rexec.o)
 .text          0x0000000000000000        0x0 libbb/lib.a(wfopen.o)
 .data          0x0000000000000000        0x0 libbb/lib.a(wfopen.o)
 .bss           0x0000000000000000        0x0 libbb/lib.a(wfopen.o)
 .reginfo       0x0000000000000000        0x0 libbb/lib.a(wfopen.o)
 .pdr           0x0000000000000000        0x0 libbb/lib.a(wfopen.o)
 .text.fopen_for_write
                0x0000000000000000        0x0 libbb/lib.a(wfopen.o)
 .text.xfopen_for_write
                0x0000000000000000        0x0 libbb/lib.a(wfopen.o)
 .text.xfdopen_helper
                0x0000000000000000        0x0 libbb/lib.a(wfopen.o)
 .text.xfdopen_for_read
                0x0000000000000000        0x0 libbb/lib.a(wfopen.o)
 .text.xfdopen_for_write
                0x0000000000000000        0x0 libbb/lib.a(wfopen.o)
 .text          0x0000000000000000        0x0 libbb/lib.a(wfopen_input.o)
 .data          0x0000000000000000        0x0 libbb/lib.a(wfopen_input.o)
 .bss           0x0000000000000000        0x0 libbb/lib.a(wfopen_input.o)
 .reginfo       0x0000000000000000        0x0 libbb/lib.a(wfopen_input.o)
 .pdr           0x0000000000000000        0x0 libbb/lib.a(wfopen_input.o)
 .text.xopen_stdin
                0x0000000000000000        0x0 libbb/lib.a(wfopen_input.o)
 .text          0x0000000000000000        0x0 libbb/lib.a(xatonum.o)
 .data          0x0000000000000000        0x0 libbb/lib.a(xatonum.o)
 .bss           0x0000000000000000        0x0 libbb/lib.a(xatonum.o)
 .reginfo       0x0000000000000000        0x0 libbb/lib.a(xatonum.o)
 .pdr           0x0000000000000000        0x0 libbb/lib.a(xatonum.o)
 .text.xstrtoull_range_sfx
                0x0000000000000000        0x0 libbb/lib.a(xatonum.o)
 .text.xstrtoull_range
                0x0000000000000000        0x0 libbb/lib.a(xatonum.o)
 .text.xstrtoull_sfx
                0x0000000000000000        0x0 libbb/lib.a(xatonum.o)
 .text.xstrtoull
                0x0000000000000000        0x0 libbb/lib.a(xatonum.o)
 .text.xatoull_range_sfx
                0x0000000000000000        0x0 libbb/lib.a(xatonum.o)
 .text.xatoull_range
                0x0000000000000000        0x0 libbb/lib.a(xatonum.o)
 .text.xatoull_sfx
                0x0000000000000000        0x0 libbb/lib.a(xatonum.o)
 .text.xatoull  0x0000000000000000        0x0 libbb/lib.a(xatonum.o)
 .text.xstrtoll_range_sfx
                0x0000000000000000        0x0 libbb/lib.a(xatonum.o)
 .text.xstrtoll_range
                0x0000000000000000        0x0 libbb/lib.a(xatonum.o)
 .text.xstrtoll
                0x0000000000000000        0x0 libbb/lib.a(xatonum.o)
 .text.xatoll_range_sfx
                0x0000000000000000        0x0 libbb/lib.a(xatonum.o)
 .text.xatoll_range
                0x0000000000000000        0x0 libbb/lib.a(xatonum.o)
 .text.xatoll_sfx
                0x0000000000000000        0x0 libbb/lib.a(xatonum.o)
 .text.xatoll   0x0000000000000000        0x0 libbb/lib.a(xatonum.o)
 .text.xatol    0x0000000000000000        0x0 libbb/lib.a(xatonum.o)
 .text.xatol_sfx
                0x0000000000000000        0x0 libbb/lib.a(xatonum.o)
 .text.xatol_range
                0x0000000000000000        0x0 libbb/lib.a(xatonum.o)
 .text.xatol_range_sfx
                0x0000000000000000        0x0 libbb/lib.a(xatonum.o)
 .text.xstrtol_range
                0x0000000000000000        0x0 libbb/lib.a(xatonum.o)
 .text.xstrtoul_sfx
                0x0000000000000000        0x0 libbb/lib.a(xatonum.o)
 .text.xstrtoul_range
                0x0000000000000000        0x0 libbb/lib.a(xatonum.o)
 .text          0x0000000000000000        0x0 libbb/lib.a(xconnect.o)
 .data          0x0000000000000000        0x0 libbb/lib.a(xconnect.o)
 .bss           0x0000000000000000        0x0 libbb/lib.a(xconnect.o)
 .reginfo       0x0000000000000000        0x0 libbb/lib.a(xconnect.o)
 .pdr           0x0000000000000000        0x0 libbb/lib.a(xconnect.o)
 .text.get_lsa  0x0000000000000000        0x0 libbb/lib.a(xconnect.o)
 .text.get_sock_lsa
                0x0000000000000000        0x0 libbb/lib.a(xconnect.o)
 .text.get_peer_lsa
                0x0000000000000000        0x0 libbb/lib.a(xconnect.o)
 .text.get_nport
                0x0000000000000000        0x0 libbb/lib.a(xconnect.o)
 .text.xsocket_type
                0x0000000000000000        0x0 libbb/lib.a(xconnect.o)
 .text.xsocket_stream
                0x0000000000000000        0x0 libbb/lib.a(xconnect.o)
 .text.create_and_bind_or_die
                0x0000000000000000        0x0 libbb/lib.a(xconnect.o)
 .text.create_and_bind_stream_or_die
                0x0000000000000000        0x0 libbb/lib.a(xconnect.o)
 .text.create_and_bind_dgram_or_die
                0x0000000000000000        0x0 libbb/lib.a(xconnect.o)
 .text.create_and_connect_stream_or_die
                0x0000000000000000        0x0 libbb/lib.a(xconnect.o)
 .text.xmalloc_sockaddr2host
                0x0000000000000000        0x0 libbb/lib.a(xconnect.o)
 .text.xmalloc_sockaddr2host_noport
                0x0000000000000000        0x0 libbb/lib.a(xconnect.o)
 .text.xmalloc_sockaddr2hostonly_noport
                0x0000000000000000        0x0 libbb/lib.a(xconnect.o)
 .text          0x0000000000000000        0x0 libbb/lib.a(xgetcwd.o)
 .data          0x0000000000000000        0x0 libbb/lib.a(xgetcwd.o)
 .bss           0x0000000000000000        0x0 libbb/lib.a(xgetcwd.o)
 .reginfo       0x0000000000000000        0x0 libbb/lib.a(xgetcwd.o)
 .pdr           0x0000000000000000        0x0 libbb/lib.a(xgetcwd.o)
 .text          0x0000000000000000        0x0 libbb/lib.a(xreadlink.o)
 .data          0x0000000000000000        0x0 libbb/lib.a(xreadlink.o)
 .bss           0x0000000000000000        0x0 libbb/lib.a(xreadlink.o)
 .reginfo       0x0000000000000000        0x0 libbb/lib.a(xreadlink.o)
 .pdr           0x0000000000000000        0x0 libbb/lib.a(xreadlink.o)
 .text          0x0000000000000000        0x0 libbb/lib.a(xrealloc_vector.o)
 .data          0x0000000000000000        0x0 libbb/lib.a(xrealloc_vector.o)
 .bss           0x0000000000000000        0x0 libbb/lib.a(xrealloc_vector.o)
 .reginfo       0x0000000000000000        0x0 libbb/lib.a(xrealloc_vector.o)
 .pdr           0x0000000000000000        0x0 libbb/lib.a(xrealloc_vector.o)
 .text          0x0000000000000000        0x0 libbb/lib.a(bb_qsort.o)
 .data          0x0000000000000000        0x0 libbb/lib.a(bb_qsort.o)
 .bss           0x0000000000000000        0x0 libbb/lib.a(bb_qsort.o)
 .reginfo       0x0000000000000000        0x0 libbb/lib.a(bb_qsort.o)
 .pdr           0x0000000000000000        0x0 libbb/lib.a(bb_qsort.o)
 .text          0x0000000000000000        0x0 libbb/lib.a(concat_subpath_file.o)
 .data          0x0000000000000000        0x0 libbb/lib.a(concat_subpath_file.o)
 .bss           0x0000000000000000        0x0 libbb/lib.a(concat_subpath_file.o)
 .reginfo       0x0000000000000000        0x0 libbb/lib.a(concat_subpath_file.o)
 .pdr           0x0000000000000000        0x0 libbb/lib.a(concat_subpath_file.o)
 .data          0x0000000000000000        0x0 /opt/workspace/rtl8198/rtl819x/toolchain/rsdk-1.3.6-5281-EB-2.6.30-0.9.30/lib/crtendS.o
 .bss           0x0000000000000000        0x0 /opt/workspace/rtl8198/rtl819x/toolchain/rsdk-1.3.6-5281-EB-2.6.30-0.9.30/lib/crtendS.o
 .reginfo       0x0000000000000000        0x0 /opt/workspace/rtl8198/rtl819x/toolchain/rsdk-1.3.6-5281-EB-2.6.30-0.9.30/lib/crtendS.o
 .text          0x0000000000000000        0x0 /opt/workspace/rtl8198/rtl819x/toolchain/rsdk-1.3.6-5281-EB-2.6.30-0.9.30/lib/crtn.o
 .data          0x0000000000000000        0x0 /opt/workspace/rtl8198/rtl819x/toolchain/rsdk-1.3.6-5281-EB-2.6.30-0.9.30/lib/crtn.o
 .bss           0x0000000000000000        0x0 /opt/workspace/rtl8198/rtl819x/toolchain/rsdk-1.3.6-5281-EB-2.6.30-0.9.30/lib/crtn.o
 .reginfo       0x0000000000000000        0x0 /opt/workspace/rtl8198/rtl819x/toolchain/rsdk-1.3.6-5281-EB-2.6.30-0.9.30/lib/crtn.o
 .pdr           0x0000000000000000        0x0 /opt/workspace/rtl8198/rtl819x/toolchain/rsdk-1.3.6-5281-EB-2.6.30-0.9.30/lib/crtn.o
 .note.GNU-stack
                0x0000000000000000        0x0 /opt/workspace/rtl8198/rtl819x/toolchain/rsdk-1.3.6-5281-EB-2.6.30-0.9.30/lib/crtn.o

Memory Configuration

Name             Origin             Length             Attributes
*default*        0x0000000000000000 0xffffffffffffffff

Linker script and memory map

LOAD /opt/workspace/rtl8198/rtl819x/toolchain/rsdk-1.3.6-5281-EB-2.6.30-0.9.30/lib/crti.o
LOAD /opt/workspace/rtl8198/rtl819x/toolchain/rsdk-1.3.6-5281-EB-2.6.30-0.9.30/lib/crt1.o
LOAD /opt/workspace/rtl8198/rtl819x/toolchain/rsdk-1.3.6-5281-EB-2.6.30-0.9.30/lib/crtbeginS.o
START GROUP
LOAD applets/built-in.o
LOAD archival/lib.a
LOAD archival/libarchive/lib.a
LOAD console-tools/lib.a
LOAD coreutils/lib.a
LOAD coreutils/libcoreutils/lib.a
LOAD debianutils/lib.a
LOAD e2fsprogs/lib.a
LOAD editors/lib.a
LOAD findutils/lib.a
LOAD init/lib.a
LOAD libbb/lib.a
LOAD libpwdgrp/lib.a
LOAD loginutils/lib.a
LOAD mailutils/lib.a
LOAD miscutils/lib.a
LOAD modutils/lib.a
LOAD networking/lib.a
LOAD networking/libiproute/lib.a
LOAD networking/udhcp/lib.a
LOAD printutils/lib.a
LOAD procps/lib.a
LOAD runit/lib.a
LOAD selinux/lib.a
LOAD shell/lib.a
LOAD sysklogd/lib.a
LOAD util-linux/lib.a
LOAD util-linux/volume_id/lib.a
LOAD archival/built-in.o
LOAD archival/libarchive/built-in.o
LOAD console-tools/built-in.o
LOAD coreutils/built-in.o
LOAD coreutils/libcoreutils/built-in.o
LOAD debianutils/built-in.o
LOAD e2fsprogs/built-in.o
LOAD editors/built-in.o
LOAD findutils/built-in.o
LOAD init/built-in.o
LOAD libbb/built-in.o
LOAD libpwdgrp/built-in.o
LOAD loginutils/built-in.o
LOAD mailutils/built-in.o
LOAD miscutils/built-in.o
LOAD modutils/built-in.o
LOAD networking/built-in.o
LOAD networking/libiproute/built-in.o
LOAD networking/udhcp/built-in.o
LOAD printutils/built-in.o
LOAD procps/built-in.o
LOAD runit/built-in.o
LOAD selinux/built-in.o
LOAD shell/built-in.o
LOAD sysklogd/built-in.o
LOAD util-linux/built-in.o
LOAD util-linux/volume_id/built-in.o
LOAD /opt/workspace/rtl8198/rtl819x/toolchain/rsdk-1.3.6-5281-EB-2.6.30-0.9.30/lib/libc.so
START GROUP
LOAD /opt/workspace/rtl8198/rtl819x/toolchain/rsdk-1.3.6-5281-EB-2.6.30-0.9.30/lib/libc.so.0
LOAD /opt/workspace/rtl8198/rtl819x/toolchain/rsdk-1.3.6-5281-EB-2.6.30-0.9.30/lib/uclibc_nonshared.a
LOAD /opt/workspace/rtl8198/rtl819x/toolchain/rsdk-1.3.6-5281-EB-2.6.30-0.9.30/lib/ld-uClibc.so.0
END GROUP
START GROUP
LOAD /opt/workspace/rtl8198/rtl819x/toolchain/rsdk-1.3.6-5281-EB-2.6.30-0.9.30/lib/libc.so.0
LOAD /opt/workspace/rtl8198/rtl819x/toolchain/rsdk-1.3.6-5281-EB-2.6.30-0.9.30/lib/uclibc_nonshared.a
LOAD /opt/workspace/rtl8198/rtl819x/toolchain/rsdk-1.3.6-5281-EB-2.6.30-0.9.30/lib/ld-uClibc.so.0
END GROUP
START GROUP
LOAD /opt/workspace/rtl8198/rtl819x/toolchain/rsdk-1.3.6-5281-EB-2.6.30-0.9.30/lib/libc.so.0
LOAD /opt/workspace/rtl8198/rtl819x/toolchain/rsdk-1.3.6-5281-EB-2.6.30-0.9.30/lib/uclibc_nonshared.a
LOAD /opt/workspace/rtl8198/rtl819x/toolchain/rsdk-1.3.6-5281-EB-2.6.30-0.9.30/lib/ld-uClibc.so.0
END GROUP
LOAD /opt/workspace/rtl8198/rtl819x/toolchain/rsdk-1.3.6-5281-EB-2.6.30-0.9.30/lib/libgcc.so
END GROUP
LOAD /opt/workspace/rtl8198/rtl819x/toolchain/rsdk-1.3.6-5281-EB-2.6.30-0.9.30/lib/crtendS.o
LOAD /opt/workspace/rtl8198/rtl819x/toolchain/rsdk-1.3.6-5281-EB-2.6.30-0.9.30/lib/crtn.o
                0x0000000000400000                PROVIDE (__executable_start, 0x400000)
                0x00000000004000f4                . = (0x400000 + SIZEOF_HEADERS)

.interp         0x00000000004000f4       0x14
 *(SORT(.interp))
 .interp        0x00000000004000f4       0x14 /opt/workspace/rtl8198/rtl819x/toolchain/rsdk-1.3.6-5281-EB-2.6.30-0.9.30/lib/crt1.o

.reginfo
 *(SORT(.reginfo))

.dynamic        0x0000000000400108       0xf8
 *(SORT(.dynamic))
 .dynamic       0x0000000000400108       0xf8 /opt/workspace/rtl8198/rtl819x/toolchain/rsdk-1.3.6-5281-EB-2.6.30-0.9.30/lib/crt1.o
                0x0000000000400108                _DYNAMIC

.hash           0x0000000000400200     0x1248
 *(SORT(.hash))
 .hash          0x0000000000400200     0x1248 /opt/workspace/rtl8198/rtl819x/toolchain/rsdk-1.3.6-5281-EB-2.6.30-0.9.30/lib/crt1.o

.dynsym         0x0000000000401448     0x2870
 *(SORT(.dynsym))
 .dynsym        0x0000000000401448     0x2870 /opt/workspace/rtl8198/rtl819x/toolchain/rsdk-1.3.6-5281-EB-2.6.30-0.9.30/lib/crt1.o

.dynstr         0x0000000000403cb8     0x1d45
 *(SORT(.dynstr))
 .dynstr        0x0000000000403cb8     0x1d45 /opt/workspace/rtl8198/rtl819x/toolchain/rsdk-1.3.6-5281-EB-2.6.30-0.9.30/lib/crt1.o

.gnu.version    0x00000000004059fe      0x50e
 *(SORT(.gnu.version))
 .gnu.version   0x00000000004059fe      0x50e /opt/workspace/rtl8198/rtl819x/toolchain/rsdk-1.3.6-5281-EB-2.6.30-0.9.30/lib/crt1.o

.gnu.version_d  0x0000000000405f0c        0x0
 *(SORT(.gnu.version_d))
 .gnu.version_d
                0x0000000000000000        0x0 /opt/workspace/rtl8198/rtl819x/toolchain/rsdk-1.3.6-5281-EB-2.6.30-0.9.30/lib/crt1.o

.gnu.version_r  0x0000000000405f0c       0x20
 *(SORT(.gnu.version_r))
 .gnu.version_r
                0x0000000000405f0c       0x20 /opt/workspace/rtl8198/rtl819x/toolchain/rsdk-1.3.6-5281-EB-2.6.30-0.9.30/lib/crt1.o

.rel.dyn        0x0000000000405f2c        0x0
 *(SORT(.rel.init))
 *(SORT(.rel.text) .rel.text.* .rel.gnu.linkonce.t.*)
 *(SORT(.rel.fini))
 *(SORT(.rel.rodata) .rel.rodata.* .rel.gnu.linkonce.r.*)
 *(SORT(.rel.data.rel.ro*) .rel.gnu.linkonce.d.rel.ro.*)
 *(SORT(.rel.data) .rel.data.* .rel.gnu.linkonce.d.*)
 *(SORT(.rel.tdata) .rel.tdata.* .rel.gnu.linkonce.td.*)
 *(SORT(.rel.tbss) .rel.tbss.* .rel.gnu.linkonce.tb.*)
 *(SORT(.rel.ctors))
 *(SORT(.rel.dtors))
 *(SORT(.rel.got))
 *(SORT(.rel.sdata) .rel.sdata.* .rel.gnu.linkonce.s.*)
 *(SORT(.rel.sbss) .rel.sbss.* .rel.gnu.linkonce.sb.*)
 *(SORT(.rel.sdata2) .rel.sdata2.* .rel.gnu.linkonce.s2.*)
 *(SORT(.rel.sbss2) .rel.sbss2.* .rel.gnu.linkonce.sb2.*)
 *(SORT(.rel.bss) .rel.bss.* .rel.gnu.linkonce.b.*)
 .rel.dyn       0x0000000000000000        0x0 /opt/workspace/rtl8198/rtl819x/toolchain/rsdk-1.3.6-5281-EB-2.6.30-0.9.30/lib/crt1.o

.rela.dyn
 *(SORT(.rela.init))
 *(SORT(.rela.text) .rela.text.* .rela.gnu.linkonce.t.*)
 *(SORT(.rela.fini))
 *(SORT(.rela.rodata) .rela.rodata.* .rela.gnu.linkonce.r.*)
 *(SORT(.rela.data) .rela.data.* .rela.gnu.linkonce.d.*)
 *(SORT(.rela.tdata) .rela.tdata.* .rela.gnu.linkonce.td.*)
 *(SORT(.rela.tbss) .rela.tbss.* .rela.gnu.linkonce.tb.*)
 *(SORT(.rela.ctors))
 *(SORT(.rela.dtors))
 *(SORT(.rela.got))
 *(SORT(.rela.sdata) .rela.sdata.* .rela.gnu.linkonce.s.*)
 *(SORT(.rela.sbss) .rela.sbss.* .rela.gnu.linkonce.sb.*)
 *(SORT(.rela.sdata2) .rela.sdata2.* .rela.gnu.linkonce.s2.*)
 *(SORT(.rela.sbss2) .rela.sbss2.* .rela.gnu.linkonce.sb2.*)
 *(SORT(.rela.bss) .rela.bss.* .rela.gnu.linkonce.b.*)

.rel.plt
 *(SORT(.rel.plt))

.rela.plt
 *(SORT(.rela.plt))

.init           0x0000000000405f2c       0x78
 *(SORT(.init))
 .init          0x0000000000405f2c       0x1c /opt/workspace/rtl8198/rtl819x/toolchain/rsdk-1.3.6-5281-EB-2.6.30-0.9.30/lib/crti.o
                0x0000000000405f2c                _init
 .init          0x0000000000405f48        0xc /opt/workspace/rtl8198/rtl819x/toolchain/rsdk-1.3.6-5281-EB-2.6.30-0.9.30/lib/crtn.o
 .init          0x0000000000405f54       0x28 /opt/workspace/rtl8198/rtl819x/toolchain/rsdk-1.3.6-5281-EB-2.6.30-0.9.30/lib/crtbeginS.o
 .init          0x0000000000405f7c       0x28 /opt/workspace/rtl8198/rtl819x/toolchain/rsdk-1.3.6-5281-EB-2.6.30-0.9.30/lib/crtendS.o

.plt
 *(SORT(.plt))

.text           0x0000000000405fb0    0x3ccd0
                0x0000000000405fb0                _ftext = .
 *(SORT(.text) .stub .text.* .gnu.linkonce.t.*)
 .text          0x0000000000405fb0       0x60 /opt/workspace/rtl8198/rtl819x/toolchain/rsdk-1.3.6-5281-EB-2.6.30-0.9.30/lib/crt1.o
                0x0000000000405fb0                __start
 .text          0x0000000000406010      0x150 /opt/workspace/rtl8198/rtl819x/toolchain/rsdk-1.3.6-5281-EB-2.6.30-0.9.30/lib/crtbeginS.o
 .text          0x0000000000406160       0x70 /opt/workspace/rtl8198/rtl819x/toolchain/rsdk-1.3.6-5281-EB-2.6.30-0.9.30/lib/crtendS.o
 .text.applet_name_compare
                0x00000000004061d0       0x34 libbb/lib.a(appletlib.o)
 .text.find_applet_by_name
                0x0000000000406204       0x5c libbb/lib.a(appletlib.o)
                0x0000000000406204                find_applet_by_name
 .text.bb_show_usage
                0x0000000000406260      0x180 libbb/lib.a(appletlib.o)
                0x0000000000406260                bb_show_usage
 .text.lbb_prepare
                0x00000000004063e0       0x4c libbb/lib.a(appletlib.o)
                0x00000000004063e0                lbb_prepare
 .text.run_applet_no_and_exit
                0x000000000040642c      0x17c libbb/lib.a(appletlib.o)
                0x000000000040642c                run_applet_no_and_exit
 .text.run_applet_and_exit
                0x00000000004065a8      0x300 libbb/lib.a(appletlib.o)
                0x00000000004065a8                run_applet_and_exit
 .text.main     0x00000000004068a8       0xf4 libbb/lib.a(appletlib.o)
                0x00000000004068a8                main
 .text.bb_basename
                0x000000000040699c       0x4c libbb/lib.a(get_last_path_component.o)
                0x000000000040699c                bb_basename
 .text.bb_get_last_path_component_nostrip
                0x00000000004069e8       0x68 libbb/lib.a(get_last_path_component.o)
                0x00000000004069e8                bb_get_last_path_component_nostrip
 .text.bb_get_last_path_component_strip
                0x0000000000406a50       0x84 libbb/lib.a(get_last_path_component.o)
                0x0000000000406a50                bb_get_last_path_component_strip
 .text.last_char_is
                0x0000000000406ad4       0x78 libbb/lib.a(last_char_is.o)
                0x0000000000406ad4                last_char_is
 .text.bb_verror_msg
                0x0000000000406b4c      0x27c libbb/lib.a(verror_msg.o)
                0x0000000000406b4c                bb_verror_msg
 .text.bb_error_msg_and_die
                0x0000000000406dc8       0x44 libbb/lib.a(verror_msg.o)
                0x0000000000406dc8                bb_error_msg_and_die
 .text.bb_error_msg
                0x0000000000406e0c       0x44 libbb/lib.a(verror_msg.o)
                0x0000000000406e0c                bb_error_msg
 .text.xfunc_die
                0x0000000000406e50       0x6c libbb/lib.a(xfunc_die.o)
                0x0000000000406e50                xfunc_die
 .text.ndelay_on
                0x0000000000406ebc       0x68 libbb/lib.a(xfuncs.o)
                0x0000000000406ebc                ndelay_on
 .text.ndelay_off
                0x0000000000406f24       0x6c libbb/lib.a(xfuncs.o)
                0x0000000000406f24                ndelay_off
 .text.close_on_exec_on
                0x0000000000406f90       0x1c libbb/lib.a(xfuncs.o)
                0x0000000000406f90                close_on_exec_on
 .text.strncpy_IFNAMSIZ
                0x0000000000406fac       0x18 libbb/lib.a(xfuncs.o)
                0x0000000000406fac                strncpy_IFNAMSIZ
 .text.utoa_to_buf
                0x0000000000406fc4       0x80 libbb/lib.a(xfuncs.o)
                0x0000000000406fc4                utoa_to_buf
 .text.itoa_to_buf
                0x0000000000407044       0x44 libbb/lib.a(xfuncs.o)
                0x0000000000407044                itoa_to_buf
 .text.utoa     0x0000000000407088       0x4c libbb/lib.a(xfuncs.o)
                0x0000000000407088                utoa
 .text.itoa     0x00000000004070d4       0x4c libbb/lib.a(xfuncs.o)
                0x00000000004070d4                itoa
 .text.bin2hex  0x0000000000407120       0x60 libbb/lib.a(xfuncs.o)
                0x0000000000407120                bin2hex
 .text.hex2bin  0x0000000000407180      0x11c libbb/lib.a(xfuncs.o)
                0x0000000000407180                hex2bin
 .text.bb_putchar_stderr
                0x000000000040729c       0x40 libbb/lib.a(xfuncs.o)
                0x000000000040729c                bb_putchar_stderr
 .text.full_write1_str
                0x00000000004072dc       0x4c libbb/lib.a(xfuncs.o)
                0x00000000004072dc                full_write1_str
 .text.full_write2_str
                0x0000000000407328       0x4c libbb/lib.a(xfuncs.o)
                0x0000000000407328                full_write2_str
 .text.wh_helper
                0x0000000000407374       0x90 libbb/lib.a(xfuncs.o)
 .text.get_terminal_width_height
                0x0000000000407404       0xe4 libbb/lib.a(xfuncs.o)
                0x0000000000407404                get_terminal_width_height
 .text.tcsetattr_stdin_TCSANOW
                0x00000000004074e8       0x20 libbb/lib.a(xfuncs.o)
                0x00000000004074e8                tcsetattr_stdin_TCSANOW
 .text.safe_waitpid
                0x0000000000407508       0x84 libbb/lib.a(xfuncs.o)
                0x0000000000407508                safe_waitpid
 .text.wait_any_nohang
                0x000000000040758c       0x20 libbb/lib.a(xfuncs.o)
                0x000000000040758c                wait_any_nohang
 .text.wait4pid
                0x00000000004075ac       0x88 libbb/lib.a(xfuncs.o)
                0x00000000004075ac                wait4pid
 .text.malloc_or_warn
                0x0000000000407634       0x6c libbb/lib.a(xfuncs_printf.o)
                0x0000000000407634                malloc_or_warn
 .text.xmalloc  0x00000000004076a0       0x5c libbb/lib.a(xfuncs_printf.o)
                0x00000000004076a0                xmalloc
 .text.xrealloc
                0x00000000004076fc       0x5c libbb/lib.a(xfuncs_printf.o)
                0x00000000004076fc                xrealloc
 .text.xzalloc  0x0000000000407758       0x64 libbb/lib.a(xfuncs_printf.o)
                0x0000000000407758                xzalloc
 .text.xstrdup  0x00000000004077bc       0x54 libbb/lib.a(xfuncs_printf.o)
                0x00000000004077bc                xstrdup
 .text.xstrndup
                0x0000000000407810       0x88 libbb/lib.a(xfuncs_printf.o)
                0x0000000000407810                xstrndup
 .text.xfopen   0x0000000000407898       0x54 libbb/lib.a(xfuncs_printf.o)
                0x0000000000407898                xfopen
 .text.xopen3   0x00000000004078ec       0x54 libbb/lib.a(xfuncs_printf.o)
                0x00000000004078ec                xopen3
 .text.xopen    0x0000000000407940       0x18 libbb/lib.a(xfuncs_printf.o)
                0x0000000000407940                xopen
 .text.open3_or_warn
                0x0000000000407958       0x6c libbb/lib.a(xfuncs_printf.o)
                0x0000000000407958                open3_or_warn
 .text.open_or_warn
                0x00000000004079c4       0x18 libbb/lib.a(xfuncs_printf.o)
                0x00000000004079c4                open_or_warn
 .text.xpipe    0x00000000004079dc       0x4c libbb/lib.a(xfuncs_printf.o)
                0x00000000004079dc                xpipe
 .text.xdup2    0x0000000000407a28       0x54 libbb/lib.a(xfuncs_printf.o)
                0x0000000000407a28                xdup2
 .text.xmove_fd
                0x0000000000407a7c       0x5c libbb/lib.a(xfuncs_printf.o)
                0x0000000000407a7c                xmove_fd
 .text.xwrite   0x0000000000407ad8       0x5c libbb/lib.a(xfuncs_printf.o)
                0x0000000000407ad8                xwrite
 .text.xclose   0x0000000000407b34       0x4c libbb/lib.a(xfuncs_printf.o)
                0x0000000000407b34                xclose
 .text.xlseek   0x0000000000407b80       0x94 libbb/lib.a(xfuncs_printf.o)
                0x0000000000407b80                xlseek
 .text.fflush_all
                0x0000000000407c14       0x18 libbb/lib.a(xfuncs_printf.o)
                0x0000000000407c14                fflush_all
 .text.bb_putchar
                0x0000000000407c2c       0x6c libbb/lib.a(xfuncs_printf.o)
                0x0000000000407c2c                bb_putchar
 .text.xasprintf
                0x0000000000407c98       0x68 libbb/lib.a(xfuncs_printf.o)
                0x0000000000407c98                xasprintf
 .text.xsetenv  0x0000000000407d00       0x4c libbb/lib.a(xfuncs_printf.o)
                0x0000000000407d00                xsetenv
 .text.bb_unsetenv
                0x0000000000407d4c       0xa4 libbb/lib.a(xfuncs_printf.o)
                0x0000000000407d4c                bb_unsetenv
 .text.bb_unsetenv_and_free
                0x0000000000407df0       0x44 libbb/lib.a(xfuncs_printf.o)
                0x0000000000407df0                bb_unsetenv_and_free
 .text.xsetgid  0x0000000000407e34       0x4c libbb/lib.a(xfuncs_printf.o)
                0x0000000000407e34                xsetgid
 .text.xsetuid  0x0000000000407e80       0x4c libbb/lib.a(xfuncs_printf.o)
                0x0000000000407e80                xsetuid
 .text.xchdir   0x0000000000407ecc       0x54 libbb/lib.a(xfuncs_printf.o)
                0x0000000000407ecc                xchdir
 .text.xchroot  0x0000000000407f20       0x54 libbb/lib.a(xfuncs_printf.o)
                0x0000000000407f20                xchroot
 .text.warn_opendir
                0x0000000000407f74       0x6c libbb/lib.a(xfuncs_printf.o)
                0x0000000000407f74                warn_opendir
 .text.xopendir
                0x0000000000407fe0       0x54 libbb/lib.a(xfuncs_printf.o)
                0x0000000000407fe0                xopendir
 .text.xsocket  0x0000000000408034       0x4c libbb/lib.a(xfuncs_printf.o)
                0x0000000000408034                xsocket
 .text.xbind    0x0000000000408080       0x4c libbb/lib.a(xfuncs_printf.o)
                0x0000000000408080                xbind
 .text.xsendto  0x00000000004080cc       0x58 libbb/lib.a(xfuncs_printf.o)
                0x00000000004080cc                xsendto
 .text.xstat    0x0000000000408124       0x54 libbb/lib.a(xfuncs_printf.o)
                0x0000000000408124                xstat
 .text.xfstat   0x0000000000408178       0x50 libbb/lib.a(xfuncs_printf.o)
                0x0000000000408178                xfstat
 .text.ioctl_or_perror_and_die
                0x00000000004081c8       0x84 libbb/lib.a(xfuncs_printf.o)
                0x00000000004081c8                ioctl_or_perror_and_die
 .text.ioctl_or_perror
                0x000000000040824c       0x84 libbb/lib.a(xfuncs_printf.o)
                0x000000000040824c                ioctl_or_perror
 .text.bb_ioctl_or_warn
                0x00000000004082d0       0x64 libbb/lib.a(xfuncs_printf.o)
                0x00000000004082d0                bb_ioctl_or_warn
 .text.bb_xioctl
                0x0000000000408334       0x50 libbb/lib.a(xfuncs_printf.o)
                0x0000000000408334                bb_xioctl
 .text.xfork    0x0000000000408384       0x4c libbb/lib.a(xfuncs_printf.o)
                0x0000000000408384                xfork
 .text.bb_full_fd_action
                0x00000000004083d0      0x1b8 libbb/lib.a(copyfd.o)
 .text.bb_copyfd_size
                0x0000000000408588       0x34 libbb/lib.a(copyfd.o)
                0x0000000000408588                bb_copyfd_size
 .text.bb_copyfd_exact_size
                0x00000000004085bc       0xb8 libbb/lib.a(copyfd.o)
                0x00000000004085bc                bb_copyfd_exact_size
 .text.bb_copyfd_eof
                0x0000000000408674       0x20 libbb/lib.a(copyfd.o)
                0x0000000000408674                bb_copyfd_eof
 .text.full_write
                0x0000000000408694       0x90 libbb/lib.a(full_write.o)
                0x0000000000408694                full_write
 .text.bb_perror_msg
                0x0000000000408724       0x80 libbb/lib.a(perror_msg.o)
                0x0000000000408724                bb_perror_msg
 .text.bb_perror_msg_and_die
                0x00000000004087a4       0x78 libbb/lib.a(perror_msg.o)
                0x00000000004087a4                bb_perror_msg_and_die
 .text.bb_simple_perror_msg
                0x000000000040881c       0x20 libbb/lib.a(perror_msg.o)
                0x000000000040881c                bb_simple_perror_msg
 .text.bb_simple_perror_msg_and_die
                0x000000000040883c       0x2c libbb/lib.a(perror_msg.o)
                0x000000000040883c                bb_simple_perror_msg_and_die
 .text.safe_read
                0x0000000000408868       0x80 libbb/lib.a(read.o)
                0x0000000000408868                safe_read
 .text.full_read
                0x00000000004088e8       0x98 libbb/lib.a(read.o)
                0x00000000004088e8                full_read
 .text.read_close
                0x0000000000408980       0x5c libbb/lib.a(read.o)
                0x0000000000408980                read_close
 .text.open_read_close
                0x00000000004089dc       0x74 libbb/lib.a(read.o)
                0x00000000004089dc                open_read_close
 .text.safe_write
                0x0000000000408a50       0x80 libbb/lib.a(safe_write.o)
                0x0000000000408a50                safe_write
 .text.parse_datestr
                0x0000000000408ad0      0x54c libbb/lib.a(time.o)
                0x0000000000408ad0                parse_datestr
 .text.validate_tm_time
                0x000000000040901c       0x5c libbb/lib.a(time.o)
                0x000000000040901c                validate_tm_time
 .text.monotonic_us
                0x0000000000409078       0x74 libbb/lib.a(time.o)
                0x0000000000409078                monotonic_us
 .text.monotonic_ms
                0x00000000004090ec       0x88 libbb/lib.a(time.o)
                0x00000000004090ec                monotonic_ms
 .text.monotonic_sec
                0x0000000000409174       0x18 libbb/lib.a(time.o)
                0x0000000000409174                monotonic_sec
 .text.ret_ERANGE
                0x000000000040918c       0x28 libbb/lib.a(bb_strtonum.o)
 .text.handle_errors
                0x00000000004091b4       0x74 libbb/lib.a(bb_strtonum.o)
 .text.bb_strtoull
                0x0000000000409228       0xac libbb/lib.a(bb_strtonum.o)
                0x0000000000409228                bb_strtoull
 .text.bb_strtoll
                0x00000000004092d4       0xbc libbb/lib.a(bb_strtonum.o)
                0x00000000004092d4                bb_strtoll
 .text.bb_strtoul
                0x0000000000409390       0xb8 libbb/lib.a(bb_strtonum.o)
                0x0000000000409390                bb_strtoul
 .text.bb_strtol
                0x0000000000409448       0xc8 libbb/lib.a(bb_strtonum.o)
                0x0000000000409448                bb_strtol
 .text.show_progress
                0x0000000000409510       0x8c miscutils/lib.a(flash_eraseall.o)
 .text.flash_eraseall_main
                0x000000000040959c      0x4f0 miscutils/lib.a(flash_eraseall.o)
                0x000000000040959c                flash_eraseall_main
 .text.flash_lock_unlock_main
                0x0000000000409a8c      0x1f4 miscutils/lib.a(flash_lock_unlock.o)
                0x0000000000409a8c                flash_lock_unlock_main
 .text.watchdog_shutdown
                0x0000000000409c80       0x40 miscutils/lib.a(watchdog.o)
 .text.watchdog_main
                0x0000000000409cc0      0x1cc miscutils/lib.a(watchdog.o)
                0x0000000000409cc0                watchdog_main
 .text.check_module_name_match
                0x0000000000409e8c       0x98 modutils/lib.a(insmod.o)
 .text.insmod_main
                0x0000000000409f24      0x338 modutils/lib.a(insmod.o)
                0x0000000000409f24                insmod_main
 .text.lsmod_main
                0x000000000040a25c      0x174 modutils/lib.a(lsmod.o)
                0x000000000040a25c                lsmod_main
 .text.filename2modname
                0x000000000040a3d0       0xe4 modutils/lib.a(modutils.o)
                0x000000000040a3d0                filename2modname
 .text.parse_cmdline_module_options
                0x000000000040a4b4      0x144 modutils/lib.a(modutils.o)
                0x000000000040a4b4                parse_cmdline_module_options
 .text.bb_init_module
                0x000000000040a5f8       0xc4 modutils/lib.a(modutils.o)
                0x000000000040a5f8                bb_init_module
 .text.bb_delete_module
                0x000000000040a6bc       0x48 modutils/lib.a(modutils.o)
                0x000000000040a6bc                bb_delete_module
 .text.moderror
                0x000000000040a704       0xb4 modutils/lib.a(modutils.o)
                0x000000000040a704                moderror
 .text.rmmod_main
                0x000000000040a7b8      0x168 modutils/lib.a(rmmod.o)
                0x000000000040a7b8                rmmod_main
 .text.ftp_die  0x000000000040a920       0x80 networking/lib.a(ftpgetput.o)
 .text.ftpcmd   0x000000000040a9a0      0x140 networking/lib.a(ftpgetput.o)
 .text.ftpgetput_main
                0x000000000040aae0      0x484 networking/lib.a(ftpgetput.o)
                0x000000000040aae0                ftpgetput_main
 .text.ifconfig_main
                0x000000000040af64      0x660 networking/lib.a(ifconfig.o)
                0x000000000040af64                ifconfig_main
 .text.INET_sprint
                0x000000000040b5c4       0x98 networking/lib.a(interface.o)
 .text.INET_input
                0x000000000040b65c       0x18 networking/lib.a(interface.o)
 .text.UNSPEC_print
                0x000000000040b674       0xa8 networking/lib.a(interface.o)
 .text.UNSPEC_sprint
                0x000000000040b71c       0x40 networking/lib.a(interface.o)
 .text.get_afntype
                0x000000000040b75c       0x48 networking/lib.a(interface.o)
 .text.add_interface
                0x000000000040b7a4       0xe8 networking/lib.a(interface.o)
 .text.if_readconf
                0x000000000040b88c      0x148 networking/lib.a(interface.o)
 .text.if_readlist_proc
                0x000000000040b9d4      0x388 networking/lib.a(interface.o)
 .text.do_if_fetch
                0x000000000040bd5c      0x480 networking/lib.a(interface.o)
 .text.ether_print
                0x000000000040c1dc       0x8c networking/lib.a(interface.o)
 .text.hexchar2int
                0x000000000040c268       0x38 networking/lib.a(interface.o)
 .text.ether_input
                0x000000000040c2a0      0x130 networking/lib.a(interface.o)
 .text.get_hwntype
                0x000000000040c3d0       0x48 networking/lib.a(interface.o)
                0x000000000040c3d0                get_hwntype
 .text.print_bytes_scaled
                0x000000000040c418       0xb4 networking/lib.a(interface.o)
 .text.ife_print
                0x000000000040c4cc      0x5bc networking/lib.a(interface.o)
 .text.display_interfaces
                0x000000000040ca88      0x174 networking/lib.a(interface.o)
                0x000000000040ca88                display_interfaces
 .text.print_stats_and_exit
                0x000000000040cbfc      0x200 networking/lib.a(ping.o)
 .text.sendping4
                0x000000000040cdfc      0x22c networking/lib.a(ping.o)
 .text.ping_main
                0x000000000040d028      0x708 networking/lib.a(ping.o)
                0x000000000040d028                ping_main
 .text.kw_lookup
                0x000000000040d730       0xc8 networking/lib.a(route.o)
 .text.INET_setroute
                0x000000000040d7f8      0x4dc networking/lib.a(route.o)
 .text.bb_displayroutes
                0x000000000040dcd4      0x304 networking/lib.a(route.o)
                0x000000000040dcd4                bb_displayroutes
 .text.route_main
                0x000000000040dfd8      0x18c networking/lib.a(route.o)
                0x000000000040dfd8                route_main
 .text.xfind_str
                0x000000000040e164       0x7c networking/lib.a(vconfig.o)
 .text.vconfig_main
                0x000000000040e1e0      0x1c0 networking/lib.a(vconfig.o)
                0x000000000040e1e0                vconfig_main
 .text.progress_meter
                0x000000000040e3a0      0x138 networking/lib.a(wget.o)
 .text.base64enc
                0x000000000040e4d8       0x78 networking/lib.a(wget.o)
 .text.sanitize_string
                0x000000000040e550       0x30 networking/lib.a(wget.o)
 .text.open_socket
                0x000000000040e580       0x64 networking/lib.a(wget.o)
 .text.fgets_and_trim
                0x000000000040e5e4       0xa0 networking/lib.a(wget.o)
 .text.ftpcmd   0x000000000040e684       0xd8 networking/lib.a(wget.o)
 .text.parse_url
                0x000000000040e75c      0x258 networking/lib.a(wget.o)
 .text.gethdr   0x000000000040e9b4      0x16c networking/lib.a(wget.o)
 .text.retrieve_file_data
                0x000000000040eb20      0x344 networking/lib.a(wget.o)
 .text.wget_main
                0x000000000040ee64     0x1038 networking/lib.a(wget.o)
                0x000000000040ee64                wget_main
 .text.sprint_nip
                0x000000000040fe9c       0x5c networking/udhcp/lib.a(dhcpc.o)
 .text.xmalloc_optname_optval
                0x000000000040fef8      0x604 networking/udhcp/lib.a(dhcpc.o)
 .text.udhcp_run_script
                0x00000000004104fc      0x510 networking/udhcp/lib.a(dhcpc.o)
 .text.init_packet
                0x0000000000410a0c      0x13c networking/udhcp/lib.a(dhcpc.o)
 .text.add_client_options
                0x0000000000410b48      0x1f4 networking/udhcp/lib.a(dhcpc.o)
 .text.raw_bcast_from_client_config_ifindex
                0x0000000000410d3c       0x58 networking/udhcp/lib.a(dhcpc.o)
 .text.send_discover
                0x0000000000410d94       0xd4 networking/udhcp/lib.a(dhcpc.o)
 .text.send_select
                0x0000000000410e68       0xe4 networking/udhcp/lib.a(dhcpc.o)
 .text.send_renew
                0x0000000000410f4c       0xd0 networking/udhcp/lib.a(dhcpc.o)
 .text.udhcp_recv_raw_packet
                0x000000000041101c      0x2a8 networking/udhcp/lib.a(dhcpc.o)
 .text.change_listen_mode
                0x00000000004112c4      0x150 networking/udhcp/lib.a(dhcpc.o)
 .text.perform_release
                0x0000000000411414      0x174 networking/udhcp/lib.a(dhcpc.o)
 .text.alloc_dhcp_option
                0x0000000000411588       0xb8 networking/udhcp/lib.a(dhcpc.o)
 .text.client_background
                0x0000000000411640       0x50 networking/udhcp/lib.a(dhcpc.o)
 .text.udhcpc_main
                0x0000000000411690      0xe6c networking/udhcp/lib.a(dhcpc.o)
                0x0000000000411690                udhcpc_main
 .text.dname_dec
                0x00000000004124fc      0x1dc networking/udhcp/lib.a(domain_codec.o)
                0x00000000004124fc                dname_dec
 .text.dname_enc
                0x00000000004126d8      0x288 networking/udhcp/lib.a(domain_codec.o)
                0x00000000004126d8                dname_enc
 .text.udhcp_init_header
                0x0000000000412960       0xbc networking/udhcp/lib.a(packet.o)
                0x0000000000412960                udhcp_init_header
 .text.udhcp_recv_kernel_packet
                0x0000000000412a1c      0x148 networking/udhcp/lib.a(packet.o)
                0x0000000000412a1c                udhcp_recv_kernel_packet
 .text.udhcp_checksum
                0x0000000000412b64       0x6c networking/udhcp/lib.a(packet.o)
                0x0000000000412b64                udhcp_checksum
 .text.udhcp_get_payload_len
                0x0000000000412bd0       0x38 networking/udhcp/lib.a(packet.o)
                0x0000000000412bd0                udhcp_get_payload_len
 .text.udhcp_send_raw_packet
                0x0000000000412c08      0x29c networking/udhcp/lib.a(packet.o)
                0x0000000000412c08                udhcp_send_raw_packet
 .text.udhcp_send_kernel_packet
                0x0000000000412ea4      0x1cc networking/udhcp/lib.a(packet.o)
                0x0000000000412ea4                udhcp_send_kernel_packet
 .text.signal_handler
                0x0000000000413070       0x64 networking/udhcp/lib.a(signalpipe.o)
 .text.udhcp_sp_setup
                0x00000000004130d4       0x9c networking/udhcp/lib.a(signalpipe.o)
                0x00000000004130d4                udhcp_sp_setup
 .text.udhcp_sp_fd_set
                0x0000000000413170       0xd0 networking/udhcp/lib.a(signalpipe.o)
                0x0000000000413170                udhcp_sp_fd_set
 .text.udhcp_sp_read
                0x0000000000413240       0x80 networking/udhcp/lib.a(signalpipe.o)
                0x0000000000413240                udhcp_sp_read
 .text.udhcp_read_interface
                0x00000000004132c0      0x1b8 networking/udhcp/lib.a(socket.o)
                0x00000000004132c0                udhcp_read_interface
 .text.udhcp_listen_socket
                0x0000000000413478      0x110 networking/udhcp/lib.a(socket.o)
                0x0000000000413478                udhcp_listen_socket
 .text.udhcp_option_idx
                0x0000000000413588       0xa8 networking/udhcp/lib.a(common.o)
                0x0000000000413588                udhcp_option_idx
 .text.udhcp_get_option
                0x0000000000413630       0xe8 networking/udhcp/lib.a(common.o)
                0x0000000000413630                udhcp_get_option
 .text.udhcp_end_option
                0x0000000000413718       0x4c networking/udhcp/lib.a(common.o)
                0x0000000000413718                udhcp_end_option
 .text.udhcp_add_binary_option
                0x0000000000413764       0xc8 networking/udhcp/lib.a(common.o)
                0x0000000000413764                udhcp_add_binary_option
 .text.udhcp_add_simple_option
                0x000000000041382c       0xa4 networking/udhcp/lib.a(common.o)
                0x000000000041382c                udhcp_add_simple_option
 .text.udhcp_find_option
                0x00000000004138d0       0x50 networking/udhcp/lib.a(common.o)
                0x00000000004138d0                udhcp_find_option
 .text.udhcp_str2nip
                0x0000000000413920       0x68 networking/udhcp/lib.a(common.o)
                0x0000000000413920                udhcp_str2nip
 .text.allocate_tempopt_if_needed
                0x0000000000413988       0xb8 networking/udhcp/lib.a(common.o)
 .text.attach_option
                0x0000000000413a40      0x27c networking/udhcp/lib.a(common.o)
 .text.udhcp_str2optset
                0x0000000000413cbc      0x2ac networking/udhcp/lib.a(common.o)
                0x0000000000413cbc                udhcp_str2optset
 .text.kill_main
                0x0000000000413f68      0x480 procps/lib.a(kill.o)
                0x0000000000413f68                kill_main
 .text.pidof_main
                0x00000000004143e8      0x11c procps/lib.a(pidof.o)
                0x00000000004143e8                pidof_main
 .text.ps_main  0x0000000000414504      0x1b8 procps/lib.a(ps.o)
                0x0000000000414504                ps_main
 .text.uptime_main
                0x00000000004146bc      0x1e0 procps/lib.a(uptime.o)
                0x00000000004146bc                uptime_main
 .text.isdigit_str9
                0x000000000041489c       0x34 shell/lib.a(ash.o)
 .text.var_end  0x00000000004148d0       0x30 shell/lib.a(ash.o)
 .text.raise_exception
                0x0000000000414900       0x44 shell/lib.a(ash.o)
 .text.raise_interrupt
                0x0000000000414944       0xa4 shell/lib.a(ash.o)
 .text.int_on   0x00000000004149e8       0x60 shell/lib.a(ash.o)
 .text.force_int_on
                0x0000000000414a48       0x4c shell/lib.a(ash.o)
 .text.outstr   0x0000000000414a94       0x50 shell/lib.a(ash.o)
 .text.flush_stdout_stderr
                0x0000000000414ae4       0x50 shell/lib.a(ash.o)
 .text.outcslow
                0x0000000000414b34       0x8c shell/lib.a(ash.o)
 .text.out1fmt  0x0000000000414bc0       0x74 shell/lib.a(ash.o)
 .text.fmtstr   0x0000000000414c34       0x6c shell/lib.a(ash.o)
 .text.out1str  0x0000000000414ca0       0x24 shell/lib.a(ash.o)
 .text.out2str  0x0000000000414cc4       0x48 shell/lib.a(ash.o)
 .text.freefunc
                0x0000000000414d0c       0x38 shell/lib.a(ash.o)
 .text.ash_vmsg
                0x0000000000414d44      0x130 shell/lib.a(ash.o)
 .text.ash_vmsg_and_raise
                0x0000000000414e74       0x5c shell/lib.a(ash.o)
 .text.ash_msg_and_raise_error
                0x0000000000414ed0       0x3c shell/lib.a(ash.o)
 .text.raise_error_syntax
                0x0000000000414f0c       0x30 shell/lib.a(ash.o)
 .text.ash_msg_and_raise
                0x0000000000414f3c       0x30 shell/lib.a(ash.o)
 .text.ash_msg  0x0000000000414f6c       0x44 shell/lib.a(ash.o)
 .text.errmsg   0x0000000000414fb0       0x38 shell/lib.a(ash.o)
 .text.stalloc  0x0000000000414fe8      0x104 shell/lib.a(ash.o)
 .text.stzalloc
                0x00000000004150ec       0x50 shell/lib.a(ash.o)
 .text.stunalloc
                0x000000000041513c       0x30 shell/lib.a(ash.o)
 .text.ststrdup
                0x000000000041516c       0x6c shell/lib.a(ash.o)
 .text.setstackmark
                0x00000000004151d8       0x3c shell/lib.a(ash.o)
 .text.popstackmark
                0x0000000000415214       0xe4 shell/lib.a(ash.o)
 .text.growstackblock
                0x00000000004152f8      0x198 shell/lib.a(ash.o)
 .text.growstackstr
                0x0000000000415490       0x9c shell/lib.a(ash.o)
 .text.makestrspace
                0x000000000041552c       0x8c shell/lib.a(ash.o)
 .text.stack_nputstr
                0x00000000004155b8       0x70 shell/lib.a(ash.o)
 .text.stack_putstr
                0x0000000000415628       0x5c shell/lib.a(ash.o)
 .text._STPUTC  0x0000000000415684       0x60 shell/lib.a(ash.o)
 .text.prefix   0x00000000004156e4       0x2c shell/lib.a(ash.o)
 .text.is_number
                0x0000000000415710       0x38 shell/lib.a(ash.o)
 .text.number   0x0000000000415748       0x64 shell/lib.a(ash.o)
 .text.single_quote
                0x00000000004157ac      0x140 shell/lib.a(ash.o)
 .text.nextopt  0x00000000004158ec      0x13c shell/lib.a(ash.o)
 .text.freeparam
                0x0000000000415a28       0x8c shell/lib.a(ash.o)
 .text.getoptsreset
                0x0000000000415ab4       0x54 shell/lib.a(ash.o)
 .text.varcmp   0x0000000000415b08       0x54 shell/lib.a(ash.o)
 .text.hashvar  0x0000000000415b5c       0x98 shell/lib.a(ash.o)
 .text.vpcmp    0x0000000000415bf4       0x24 shell/lib.a(ash.o)
 .text.findvar  0x0000000000415c18       0x78 shell/lib.a(ash.o)
 .text.lookupvar
                0x0000000000415c90       0x90 shell/lib.a(ash.o)
 .text.bltinlookup
                0x0000000000415d20       0x8c shell/lib.a(ash.o)
 .text.setvareq
                0x0000000000415dac      0x1bc shell/lib.a(ash.o)
 .text.setvar   0x0000000000415f68      0x170 shell/lib.a(ash.o)
 .text.setvar2  0x00000000004160d8       0x1c shell/lib.a(ash.o)
 .text.setvarsafe
                0x00000000004160f4       0xd8 shell/lib.a(ash.o)
 .text.unsetvar
                0x00000000004161cc      0x134 shell/lib.a(ash.o)
 .text.listsetvar
                0x0000000000416300       0x94 shell/lib.a(ash.o)
 .text.listvars
                0x0000000000416394      0x144 shell/lib.a(ash.o)
 .text.path_advance
                0x00000000004164d8      0x1fc shell/lib.a(ash.o)
 .text.cdopt    0x00000000004166d4       0x74 shell/lib.a(ash.o)
 .text.setpwd   0x0000000000416748      0x184 shell/lib.a(ash.o)
 .text.cdcmd    0x00000000004168cc      0x50c shell/lib.a(ash.o)
 .text.pwdcmd   0x0000000000416dd8       0xa4 shell/lib.a(ash.o)
 .text.__lookupalias
                0x0000000000416e7c       0xdc shell/lib.a(ash.o)
 .text.lookupalias
                0x0000000000416f58       0x6c shell/lib.a(ash.o)
 .text.freealias
                0x0000000000416fc4       0x94 shell/lib.a(ash.o)
 .text.unalias  0x0000000000417058       0x98 shell/lib.a(ash.o)
 .text.printalias
                0x00000000004170f0       0x64 shell/lib.a(ash.o)
 .text.aliascmd
                0x0000000000417154      0x224 shell/lib.a(ash.o)
 .text.unaliascmd
                0x0000000000417378      0x178 shell/lib.a(ash.o)
 .text.ignoresig
                0x00000000004174f0       0x68 shell/lib.a(ash.o)
 .text.signal_handler
                0x0000000000417558       0x84 shell/lib.a(ash.o)
 .text.setsignal
                0x00000000004175dc      0x210 shell/lib.a(ash.o)
 .text.set_curjob
                0x00000000004177ec       0x7c shell/lib.a(ash.o)
 .text.jobno    0x0000000000417868       0x34 shell/lib.a(ash.o)
 .text.getjob   0x000000000041789c      0x208 shell/lib.a(ash.o)
 .text.freejob  0x0000000000417aa4       0xe8 shell/lib.a(ash.o)
 .text.xtcsetpgrp
                0x0000000000417b8c       0x50 shell/lib.a(ash.o)
 .text.setjobctl
                0x0000000000417bdc      0x288 shell/lib.a(ash.o)
 .text.killcmd  0x0000000000417e64      0x19c shell/lib.a(ash.o)
 .text.sprint_status
                0x0000000000418000      0x13c shell/lib.a(ash.o)
 .text.dowait   0x000000000041813c      0x200 shell/lib.a(ash.o)
 .text.blocking_wait_with_raise_on_sig
                0x000000000041833c       0x6c shell/lib.a(ash.o)
 .text.showjob  0x00000000004183a8      0x2dc shell/lib.a(ash.o)
 .text.showjobs
                0x0000000000418684       0xb8 shell/lib.a(ash.o)
 .text.jobscmd  0x000000000041873c       0xf0 shell/lib.a(ash.o)
 .text.getstatus
                0x000000000041882c       0xa8 shell/lib.a(ash.o)
 .text.waitforjob
                0x00000000004188d4      0x128 shell/lib.a(ash.o)
 .text.fg_bgcmd
                0x00000000004189fc      0x260 shell/lib.a(ash.o)
 .text.waitcmd  0x0000000000418c5c      0x1bc shell/lib.a(ash.o)
 .text.makejob  0x0000000000418e18      0x208 shell/lib.a(ash.o)
 .text.cmdputs  0x0000000000419020      0x29c shell/lib.a(ash.o)
 .text.cmdtxt   0x00000000004192bc      0x50c shell/lib.a(ash.o)
 .text.cmdlist  0x00000000004197c8       0xb0 shell/lib.a(ash.o)
 .text.stoppedjobs
                0x0000000000419878       0x88 shell/lib.a(ash.o)
 .text.copyfd   0x0000000000419900       0xb0 shell/lib.a(ash.o)
 .text.need_to_remember
                0x00000000004199b0       0x4c shell/lib.a(ash.o)
 .text.is_hidden_fd
                0x00000000004199fc       0x9c shell/lib.a(ash.o)
 .text.popredir
                0x0000000000419a98      0x194 shell/lib.a(ash.o)
 .text.clearredir
                0x0000000000419c2c       0x68 shell/lib.a(ash.o)
 .text.ash_arith
                0x0000000000419c94       0xb0 shell/lib.a(ash.o)
 .text.cvtnum   0x0000000000419d44       0x98 shell/lib.a(ash.o)
 .text.esclen   0x0000000000419ddc       0x48 shell/lib.a(ash.o)
 .text.rmescapes
                0x0000000000419e24      0x1f8 shell/lib.a(ash.o)
 .text.preglob  0x000000000041a01c       0x28 shell/lib.a(ash.o)
 .text.memtodest
                0x000000000041a044      0x114 shell/lib.a(ash.o)
 .text.recordregion
                0x000000000041a158       0xbc shell/lib.a(ash.o)
 .text.removerecordregions
                0x000000000041a214      0x1b8 shell/lib.a(ash.o)
 .text.scanleft
                0x000000000041a3cc       0xd8 shell/lib.a(ash.o)
 .text.scanright
                0x000000000041a4a4      0x1b0 shell/lib.a(ash.o)
 .text.varunset
                0x000000000041a654       0x84 shell/lib.a(ash.o)
 .text.varvalue
                0x000000000041a6d8      0x4b8 shell/lib.a(ash.o)
 .text.addfname
                0x000000000041ab90       0x7c shell/lib.a(ash.o)
 .text.expmeta  0x000000000041ac0c      0x390 shell/lib.a(ash.o)
 .text.msort    0x000000000041af9c      0x120 shell/lib.a(ash.o)
 .text.tryexec  0x000000000041b0bc      0x108 shell/lib.a(ash.o)
 .text.shellexec
                0x000000000041b1c4      0x1a0 shell/lib.a(ash.o)
 .text.clearcmdentry
                0x000000000041b364       0xfc shell/lib.a(ash.o)
 .text.cmdlookup
                0x000000000041b460      0x140 shell/lib.a(ash.o)
 .text.delete_cmd_entry
                0x000000000041b5a0       0x94 shell/lib.a(ash.o)
 .text.changepath
                0x000000000041b634      0x144 shell/lib.a(ash.o)
 .text.pstrcmp  0x000000000041b778       0x1c shell/lib.a(ash.o)
 .text.findkwd  0x000000000041b794       0x4c shell/lib.a(ash.o)
 .text.sizenodelist
                0x000000000041b7e0       0x68 shell/lib.a(ash.o)
 .text.calcsize
                0x000000000041b848      0x184 shell/lib.a(ash.o)
 .text.nodeckstrdup
                0x000000000041b9cc       0x80 shell/lib.a(ash.o)
 .text.copynodelist
                0x000000000041ba4c       0x8c shell/lib.a(ash.o)
 .text.copynode
                0x000000000041bad8      0x21c shell/lib.a(ash.o)
 .text.optschanged
                0x000000000041bcf4      0x104 shell/lib.a(ash.o)
 .text.localcmd
                0x000000000041bdf8      0x2b0 shell/lib.a(ash.o)
 .text.falsecmd
                0x000000000041c0a8        0x8 shell/lib.a(ash.o)
 .text.truecmd  0x000000000041c0b0        0x8 shell/lib.a(ash.o)
 .text.execcmd  0x000000000041c0b8       0x80 shell/lib.a(ash.o)
 .text.returncmd
                0x000000000041c138       0x54 shell/lib.a(ash.o)
 .text.echocmd  0x000000000041c18c       0x18 shell/lib.a(ash.o)
 .text.printfcmd
                0x000000000041c1a4       0x18 shell/lib.a(ash.o)
 .text.testcmd  0x000000000041c1bc       0x18 shell/lib.a(ash.o)
 .text.find_builtin
                0x000000000041c1d4       0x4c shell/lib.a(ash.o)
 .text.isassignment
                0x000000000041c220       0x54 shell/lib.a(ash.o)
 .text.bltincmd
                0x000000000041c274       0x1c shell/lib.a(ash.o)
 .text.evalbltin
                0x000000000041c290      0x130 shell/lib.a(ash.o)
 .text.goodname
                0x000000000041c3c0       0x3c shell/lib.a(ash.o)
 .text.breakcmd
                0x000000000041c3fc       0xb4 shell/lib.a(ash.o)
 .text.pushstring
                0x000000000041c4b0       0xe8 shell/lib.a(ash.o)
 .text.popstring
                0x000000000041c598      0x124 shell/lib.a(ash.o)
 .text.preadbuffer
                0x000000000041c6bc      0x340 shell/lib.a(ash.o)
 .text.pgetc    0x000000000041c9fc       0x48 shell/lib.a(ash.o)
 .text.pgetc_without_PEOA
                0x000000000041ca44       0x74 shell/lib.a(ash.o)
 .text.pungetc  0x000000000041cab8       0x30 shell/lib.a(ash.o)
 .text.pushfile
                0x000000000041cae8       0x4c shell/lib.a(ash.o)
 .text.popfile  0x000000000041cb34       0xc0 shell/lib.a(ash.o)
 .text.popallfiles
                0x000000000041cbf4       0x6c shell/lib.a(ash.o)
 .text.forkchild
                0x000000000041cc60      0x4d8 shell/lib.a(ash.o)
 .text.forkshell
                0x000000000041d138      0x208 shell/lib.a(ash.o)
 .text.setinputfile
                0x000000000041d340      0x178 shell/lib.a(ash.o)
 .text.setinputstring
                0x000000000041d4b8       0x94 shell/lib.a(ash.o)
 .text.setparam
                0x000000000041d54c       0xf0 shell/lib.a(ash.o)
 .text.options  0x000000000041d63c      0x358 shell/lib.a(ash.o)
 .text.shiftcmd
                0x000000000041d994      0x118 shell/lib.a(ash.o)
 .text.showvars
                0x000000000041daac      0x13c shell/lib.a(ash.o)
 .text.setcmd   0x000000000041dbe8       0xe0 shell/lib.a(ash.o)
 .text.getoptscmd
                0x000000000041dcc8      0x43c shell/lib.a(ash.o)
 .text.tokname  0x000000000041e104       0x80 shell/lib.a(ash.o)
 .text.raise_error_unexpected_syntax
                0x000000000041e184       0xb8 shell/lib.a(ash.o)
 .text.makename
                0x000000000041e23c       0x58 shell/lib.a(ash.o)
 .text.fixredir
                0x000000000041e294       0xe8 shell/lib.a(ash.o)
 .text.parsecmd
                0x000000000041e37c       0xac shell/lib.a(ash.o)
 .text.evalstring
                0x000000000041e428       0xe4 shell/lib.a(ash.o)
 .text.evaltree
                0x000000000041e50c      0x528 shell/lib.a(ash.o)
 .text.argstr   0x000000000041ea34      0x890 shell/lib.a(ash.o)
 .text.expandarg
                0x000000000041f2c4      0x5b0 shell/lib.a(ash.o)
 .text.expandstr
                0x000000000041f874       0xd4 shell/lib.a(ash.o)
 .text.setprompt_if
                0x000000000041f948      0x124 shell/lib.a(ash.o)
 .text.xxreadtoken
                0x000000000041fa6c      0x2e0 shell/lib.a(ash.o)
 .text.readtoken
                0x000000000041fd4c      0x170 shell/lib.a(ash.o)
 .text.parsefname
                0x000000000041febc      0x1f0 shell/lib.a(ash.o)
 .text.peektoken
                0x00000000004200ac       0x5c shell/lib.a(ash.o)
 .text.list     0x0000000000420108      0x2cc shell/lib.a(ash.o)
 .text.readtoken1
                0x00000000004203d4     0x1550 shell/lib.a(ash.o)
 .text.parseheredoc
                0x0000000000421924       0xec shell/lib.a(ash.o)
 .text.parse_command
                0x0000000000421a10      0x9c8 shell/lib.a(ash.o)
 .text.pipeline
                0x00000000004223d8      0x194 shell/lib.a(ash.o)
 .text.expredir
                0x000000000042256c      0x130 shell/lib.a(ash.o)
 .text.redirect
                0x000000000042269c      0x76c shell/lib.a(ash.o)
 .text.redirectsafe
                0x0000000000422e08       0xf8 shell/lib.a(ash.o)
 .text.evalsubshell
                0x0000000000422f00      0x160 shell/lib.a(ash.o)
 .text.subevalvar
                0x0000000000423060      0x77c shell/lib.a(ash.o)
 .text.evalvar  0x00000000004237dc      0x3c4 shell/lib.a(ash.o)
 .text.evalcase
                0x0000000000423ba0      0x224 shell/lib.a(ash.o)
 .text.evalloop
                0x0000000000423dc4      0x158 shell/lib.a(ash.o)
 .text.evalfor  0x0000000000423f1c      0x1a8 shell/lib.a(ash.o)
 .text.evalfun  0x00000000004240c4      0x3f4 shell/lib.a(ash.o)
 .text.evalcmd  0x00000000004244b8      0x108 shell/lib.a(ash.o)
 .text.cmdloop  0x00000000004245c0      0x174 shell/lib.a(ash.o)
 .text.dotcmd   0x0000000000424734      0x254 shell/lib.a(ash.o)
 .text.exitcmd  0x0000000000424988       0x80 shell/lib.a(ash.o)
 .text.find_command
                0x0000000000424a08      0x578 shell/lib.a(ash.o)
 .text.describe_command
                0x0000000000424f80      0x30c shell/lib.a(ash.o)
 .text.typecmd  0x000000000042528c       0xac shell/lib.a(ash.o)
 .text.commandcmd
                0x0000000000425338       0xac shell/lib.a(ash.o)
 .text.hashcmd  0x00000000004253e4      0x22c shell/lib.a(ash.o)
 .text.evalpipe
                0x0000000000425610      0x2b0 shell/lib.a(ash.o)
 .text.evalcommand
                0x00000000004258c0      0x754 shell/lib.a(ash.o)
 .text.trapcmd  0x0000000000426014      0x214 shell/lib.a(ash.o)
 .text.helpcmd  0x0000000000426228       0xe8 shell/lib.a(ash.o)
 .text.exportcmd
                0x0000000000426310      0x1a8 shell/lib.a(ash.o)
 .text.unsetcmd
                0x00000000004264b8      0x10c shell/lib.a(ash.o)
 .text.timescmd
                0x00000000004265c4      0x100 shell/lib.a(ash.o)
 .text.letcmd   0x00000000004266c4       0x7c shell/lib.a(ash.o)
 .text.readcmd  0x0000000000426740      0x15c shell/lib.a(ash.o)
 .text.umaskcmd
                0x000000000042689c      0x26c shell/lib.a(ash.o)
 .text.ulimitcmd
                0x0000000000426b08       0x18 shell/lib.a(ash.o)
 .text.exitshell
                0x0000000000426b20       0xe4 shell/lib.a(ash.o)
 .text.read_profile
                0x0000000000426c04       0x88 shell/lib.a(ash.o)
 .text.ash_main
                0x0000000000426c8c      0x7f0 shell/lib.a(ash.o)
                0x0000000000426c8c                ash_main
 .text.endofname
                0x000000000042747c       0x78 shell/lib.a(math.o)
                0x000000000042747c                endofname
 .text.evaluate_string
                0x00000000004274f4      0x430 shell/lib.a(math.o)
 .text.arith_lookup_val
                0x0000000000427924      0x110 shell/lib.a(math.o)
 .text.arith_apply
                0x0000000000427a34      0x65c shell/lib.a(math.o)
 .text.arith    0x0000000000428090       0x20 shell/lib.a(math.o)
                0x0000000000428090                arith
 .text.is_well_formed_var_name
                0x00000000004280b0       0x80 shell/lib.a(shell_common.o)
                0x00000000004280b0                is_well_formed_var_name
 .text.shell_builtin_read
                0x0000000000428130      0x634 shell/lib.a(shell_common.o)
                0x0000000000428130                shell_builtin_read
 .text.printlim
                0x0000000000428764       0xa4 shell/lib.a(shell_common.o)
 .text.shell_builtin_ulimit
                0x0000000000428808      0x328 shell/lib.a(shell_common.o)
                0x0000000000428808                shell_builtin_ulimit
 .text.klogd_main
                0x0000000000428b30      0x2ec sysklogd/lib.a(klogd.o)
                0x0000000000428b30                klogd_main
 .text.error_exit
                0x0000000000428e1c       0x44 sysklogd/lib.a(logread.o)
 .text.sem_up   0x0000000000428e60       0x58 sysklogd/lib.a(logread.o)
 .text.interrupted
                0x0000000000428eb8       0x50 sysklogd/lib.a(logread.o)
 .text.logread_main
                0x0000000000428f08      0x32c sysklogd/lib.a(logread.o)
                0x0000000000428f08                logread_main
 .text.find_by_val
                0x0000000000429234       0x30 sysklogd/lib.a(syslogd_and_logger.o)
 .text.timestamp_and_log
                0x0000000000429264      0x580 sysklogd/lib.a(syslogd_and_logger.o)
 .text.timestamp_and_log_internal
                0x00000000004297e4       0x40 sysklogd/lib.a(syslogd_and_logger.o)
 .text.create_socket
                0x0000000000429824      0x130 sysklogd/lib.a(syslogd_and_logger.o)
 .text.syslogd_main
                0x0000000000429954      0x838 sysklogd/lib.a(syslogd_and_logger.o)
                0x0000000000429954                syslogd_main
 .text.decode   0x000000000042a18c       0xa4 sysklogd/lib.a(syslogd_and_logger.o)
 .text.logger_main
                0x000000000042a230      0x2c4 sysklogd/lib.a(syslogd_and_logger.o)
                0x000000000042a230                logger_main
 .text.dmesg_main
                0x000000000042a4f4      0x1e4 util-linux/lib.a(dmesg.o)
                0x000000000042a4f4                dmesg_main
 .text.read_rtc
                0x000000000042a6d8       0x68 util-linux/lib.a(hwclock.o)
 .text.hwclock_main
                0x000000000042a740      0x2c0 util-linux/lib.a(hwclock.o)
                0x000000000042a740                hwclock_main
 .text.append_mount_options
                0x000000000042aa00      0x17c util-linux/lib.a(mount.o)
 .text.parse_mount_options
                0x000000000042ab7c      0x19c util-linux/lib.a(mount.o)
 .text.mount_it_now
                0x000000000042ad18      0x1d4 util-linux/lib.a(mount.o)
 .text.singlemount
                0x000000000042aeec      0x568 util-linux/lib.a(mount.o)
 .text.mount_main
                0x000000000042b454      0x6c8 util-linux/lib.a(mount.o)
                0x000000000042b454                mount_main
 .text.delete_contents
                0x000000000042bb1c      0x170 util-linux/lib.a(switch_root.o)
 .text.switch_root_main
                0x000000000042bc8c      0x27c util-linux/lib.a(switch_root.o)
                0x000000000042bc8c                switch_root_main
 .text.umount_main
                0x000000000042bf08      0x3cc util-linux/lib.a(umount.o)
                0x000000000042bf08                umount_main
 .text.gnu_dev_major
                0x000000000042c2d4       0x24 archival/lib.a(tar.o)
 .text.gnu_dev_minor
                0x000000000042c2f8       0x20 archival/lib.a(tar.o)
 .text.putOctal
                0x000000000042c318       0x98 archival/lib.a(tar.o)
 .text.chksum_and_xwrite
                0x000000000042c3b0       0xf8 archival/lib.a(tar.o)
 .text.writeLongname
                0x000000000042c4a8      0x1a8 archival/lib.a(tar.o)
 .text.writeFileToTarball
                0x000000000042c650      0x78c archival/lib.a(tar.o)
 .text.vfork_compressor
                0x000000000042cddc      0x1b4 archival/lib.a(tar.o)
 .text.writeTarFile
                0x000000000042cf90      0x1b0 archival/lib.a(tar.o)
 .text.append_file_list_to_list
                0x000000000042d140       0xe0 archival/lib.a(tar.o)
 .text.tar_main
                0x000000000042d220      0x4f8 archival/lib.a(tar.o)
                0x000000000042d220                tar_main
 .text.data_extract_all
                0x000000000042d718      0x5a4 archival/libarchive/lib.a(data_extract_all.o)
                0x000000000042d718                data_extract_all
 .text.xputenv  0x000000000042dcbc       0x4c archival/libarchive/lib.a(data_extract_to_command.o)
 .text.str2env  0x000000000042dd08       0x74 archival/libarchive/lib.a(data_extract_to_command.o)
 .text.dec2env  0x000000000042dd7c       0x74 archival/libarchive/lib.a(data_extract_to_command.o)
 .text.data_extract_to_command
                0x000000000042ddf0      0x2ec archival/libarchive/lib.a(data_extract_to_command.o)
                0x000000000042ddf0                data_extract_to_command
 .text.data_extract_to_stdout
                0x000000000042e0dc       0x28 archival/libarchive/lib.a(data_extract_to_stdout.o)
                0x000000000042e0dc                data_extract_to_stdout
 .text.data_skip
                0x000000000042e104       0x20 archival/libarchive/lib.a(data_skip.o)
                0x000000000042e104                data_skip
 .text.get_bits
                0x000000000042e124      0x120 archival/libarchive/lib.a(decompress_bunzip2.o)
 .text.read_bunzip
                0x000000000042e244      0xa34 archival/libarchive/lib.a(decompress_bunzip2.o)
                0x000000000042e244                read_bunzip
 .text.start_bunzip
                0x000000000042ec78      0x198 archival/libarchive/lib.a(decompress_bunzip2.o)
                0x000000000042ec78                start_bunzip
 .text.dealloc_bunzip
                0x000000000042ee10       0x4c archival/libarchive/lib.a(decompress_bunzip2.o)
                0x000000000042ee10                dealloc_bunzip
 .text.filter_accept_reject_list
                0x000000000042ee5c       0x90 archival/libarchive/lib.a(filter_accept_reject_list.o)
                0x000000000042ee5c                filter_accept_reject_list
 .text.find_list_entry
                0x000000000042eeec       0x70 archival/libarchive/lib.a(find_list_entry.o)
                0x000000000042eeec                find_list_entry
 .text.find_list_entry2
                0x000000000042ef5c       0xf4 archival/libarchive/lib.a(find_list_entry.o)
                0x000000000042ef5c                find_list_entry2
 .text.strip_unsafe_prefix
                0x000000000042f050       0xe8 archival/libarchive/lib.a(get_header_tar.o)
                0x000000000042f050                strip_unsafe_prefix
 .text.getOctal
                0x000000000042f138       0xe4 archival/libarchive/lib.a(get_header_tar.o)
 .text.get_header_tar
                0x000000000042f21c      0x8fc archival/libarchive/lib.a(get_header_tar.o)
                0x000000000042f21c                get_header_tar
 .text.get_header_tar_gz
                0x000000000042fb18       0xb0 archival/libarchive/lib.a(get_header_tar_gz.o)
                0x000000000042fb18                get_header_tar_gz
 .text.header_list
                0x000000000042fbc8       0x1c archival/libarchive/lib.a(header_list.o)
                0x000000000042fbc8                header_list
 .text.header_verbose_list
                0x000000000042fbe4      0x15c archival/libarchive/lib.a(header_verbose_list.o)
                0x000000000042fbe4                header_verbose_list
 .text.init_handle
                0x000000000042fd40       0x78 archival/libarchive/lib.a(init_handle.o)
                0x000000000042fd40                init_handle
 .text.open_transformer
                0x000000000042fdb8       0xb8 archival/libarchive/lib.a(open_transformer.o)
                0x000000000042fdb8                open_transformer
 .text.seek_by_jump
                0x000000000042fe70       0xc0 archival/libarchive/lib.a(seek_by_jump.o)
                0x000000000042fe70                seek_by_jump
 .text.seek_by_read
                0x000000000042ff30       0x2c archival/libarchive/lib.a(seek_by_read.o)
                0x000000000042ff30                seek_by_read
 .text.data_align
                0x000000000042ff5c       0xe8 archival/libarchive/lib.a(data_align.o)
                0x000000000042ff5c                data_align
 .text.huft_free
                0x0000000000430044       0x54 archival/libarchive/lib.a(decompress_unzip.o)
 .text.huft_free_all
                0x0000000000430098       0x6c archival/libarchive/lib.a(decompress_unzip.o)
 .text.abort_unzip
                0x0000000000430104       0x40 archival/libarchive/lib.a(decompress_unzip.o)
 .text.fill_bitbuffer
                0x0000000000430144      0x154 archival/libarchive/lib.a(decompress_unzip.o)
 .text.huft_build
                0x0000000000430298      0x5b4 archival/libarchive/lib.a(decompress_unzip.o)
 .text.inflate_codes_setup
                0x000000000043084c       0x58 archival/libarchive/lib.a(decompress_unzip.o)
 .text.inflate_codes
                0x00000000004308a4      0x43c archival/libarchive/lib.a(decompress_unzip.o)
 .text.calculate_gunzip_crc
                0x0000000000430ce0       0x7c archival/libarchive/lib.a(decompress_unzip.o)
 .text.inflate_unzip_internal
                0x0000000000430d5c      0xa9c archival/libarchive/lib.a(decompress_unzip.o)
 .text.top_up   0x00000000004317f8       0xd8 archival/libarchive/lib.a(decompress_unzip.o)
 .text.buffer_read_le_u32
                0x00000000004318d0       0x40 archival/libarchive/lib.a(decompress_unzip.o)
 .text.unpack_gz_stream_with_info
                0x0000000000431910      0x418 archival/libarchive/lib.a(decompress_unzip.o)
                0x0000000000431910                unpack_gz_stream_with_info
 .text.unpack_gz_stream
                0x0000000000431d28       0x18 archival/libarchive/lib.a(decompress_unzip.o)
                0x0000000000431d28                unpack_gz_stream
 .text.filter_accept_all
                0x0000000000431d40       0x10 archival/libarchive/lib.a(filter_accept_all.o)
                0x0000000000431d40                filter_accept_all
 .text.header_skip
                0x0000000000431d50        0x8 archival/libarchive/lib.a(header_skip.o)
                0x0000000000431d50                header_skip
 .text.clear_main
                0x0000000000431d58       0x40 console-tools/lib.a(clear.o)
                0x0000000000431d58                clear_main
 .text.basename_main
                0x0000000000431d98      0x144 coreutils/lib.a(basename.o)
                0x0000000000431d98                basename_main
 .text.bb_cat   0x0000000000431edc       0xc8 coreutils/lib.a(cat.o)
                0x0000000000431edc                bb_cat
 .text.cat_main
                0x0000000000431fa4       0x5c coreutils/lib.a(cat.o)
                0x0000000000431fa4                cat_main
 .text.fileAction
                0x0000000000432000       0xf0 coreutils/lib.a(chmod.o)
 .text.chmod_main
                0x00000000004320f0      0x144 coreutils/lib.a(chmod.o)
                0x00000000004320f0                chmod_main
 .text.cp_main  0x0000000000432234      0x1b8 coreutils/lib.a(cp.o)
                0x0000000000432234                cp_main
 .text.maybe_set_utc
                0x00000000004323ec       0x30 coreutils/lib.a(date.o)
 .text.date_main
                0x000000000043241c      0x5b4 coreutils/lib.a(date.o)
                0x000000000043241c                date_main
 .text.df_main  0x00000000004329d0      0x42c coreutils/lib.a(df.o)
                0x00000000004329d0                df_main
 .text.echo_main
                0x0000000000432dfc      0x238 coreutils/lib.a(echo.o)
                0x0000000000432dfc                echo_main
 .text.ln_main  0x0000000000433034      0x2f0 coreutils/lib.a(ln.o)
                0x0000000000433034                ln_main
 .text.print_name
                0x0000000000433324      0x1c0 coreutils/lib.a(ls.o)
 .text.display_single
                0x00000000004334e4      0x454 coreutils/lib.a(ls.o)
 .text.display_files
                0x0000000000433938      0x2c0 coreutils/lib.a(ls.o)
 .text.my_stat  0x0000000000433bf8      0x1b8 coreutils/lib.a(ls.o)
 .text.count_dirs
                0x0000000000433db0       0x94 coreutils/lib.a(ls.o)
 .text.dnalloc  0x0000000000433e44       0x28 coreutils/lib.a(ls.o)
 .text.splitdnarray
                0x0000000000433e6c      0x108 coreutils/lib.a(ls.o)
 .text.scan_and_display_dirs_recur
                0x0000000000433f74      0x260 coreutils/lib.a(ls.o)
 .text.ls_main  0x00000000004341d4      0x370 coreutils/lib.a(ls.o)
                0x00000000004341d4                ls_main
 .text.mkdir_main
                0x0000000000434544      0x118 coreutils/lib.a(mkdir.o)
                0x0000000000434544                mkdir_main
 .text.mknod_main
                0x000000000043465c      0x180 coreutils/lib.a(mknod.o)
                0x000000000043465c                mknod_main
 .text.mv_main  0x00000000004347dc      0x32c coreutils/lib.a(mv.o)
                0x00000000004347dc                mv_main
 .text.multiconvert
                0x0000000000434b08       0xc8 coreutils/lib.a(printf.o)
 .text.conv_strtoull
                0x0000000000434bd0       0x8c coreutils/lib.a(printf.o)
 .text.conv_strtoll
                0x0000000000434c5c       0x4c coreutils/lib.a(printf.o)
 .text.conv_strtod
                0x0000000000434ca8       0x70 coreutils/lib.a(printf.o)
 .text.print_direc
                0x0000000000434d18      0x350 coreutils/lib.a(printf.o)
 .text.get_width_prec
                0x0000000000435068       0x7c coreutils/lib.a(printf.o)
 .text.printf_main
                0x00000000004350e4      0x5bc coreutils/lib.a(printf.o)
                0x00000000004350e4                printf_main
 .text.pwd_main
                0x00000000004356a0       0x80 coreutils/lib.a(pwd.o)
                0x00000000004356a0                pwd_main
 .text.rm_main  0x0000000000435720      0x160 coreutils/lib.a(rm.o)
                0x0000000000435720                rm_main
 .text.sleep_main
                0x0000000000435880       0x98 coreutils/lib.a(sleep.o)
                0x0000000000435880                sleep_main
 .text.sync_main
                0x0000000000435918       0x38 coreutils/lib.a(sync.o)
                0x0000000000435918                sync_main
 .text.syntax   0x0000000000435950       0x74 coreutils/lib.a(test.o)
 .text.getn     0x00000000004359c4       0xc0 coreutils/lib.a(test.o)
 .text.check_operator
                0x0000000000435a84       0x8c coreutils/lib.a(test.o)
 .text.binop    0x0000000000435b10      0x250 coreutils/lib.a(test.o)
 .text.nexpr    0x0000000000435d60      0x584 coreutils/lib.a(test.o)
 .text.aexpr    0x00000000004362e4       0xe4 coreutils/lib.a(test.o)
 .text.oexpr    0x00000000004363c8       0xec coreutils/lib.a(test.o)
 .text.test_main
                0x00000000004364b4      0x1d8 coreutils/lib.a(test.o)
                0x00000000004364b4                test_main
 .text.touch_main
                0x000000000043668c      0x10c coreutils/lib.a(touch.o)
                0x000000000043668c                touch_main
 .text.uname_main
                0x0000000000436798      0x16c coreutils/lib.a(uname.o)
                0x0000000000436798                uname_main
 .text.cp_mv_stat2
                0x0000000000436904       0xa4 coreutils/libcoreutils/lib.a(cp_mv_stat.o)
                0x0000000000436904                cp_mv_stat2
 .text.cp_mv_stat
                0x00000000004369a8       0x1c coreutils/libcoreutils/lib.a(cp_mv_stat.o)
                0x00000000004369a8                cp_mv_stat
 .text.getopt_mk_fifo_nod
                0x00000000004369c4       0x84 coreutils/libcoreutils/lib.a(getopt_mk_fifo_nod.o)
                0x00000000004369c4                getopt_mk_fifo_nod
 .text.halt_main
                0x0000000000436a48      0x140 init/lib.a(halt.o)
                0x0000000000436a48                halt_main
 .text.message  0x0000000000436b88      0x128 init/lib.a(init.o)
 .text.set_sane_term
                0x0000000000436cb0       0xbc init/lib.a(init.o)
 .text.open_stdio_to_tty
                0x0000000000436d6c       0xf8 init/lib.a(init.o)
 .text.reset_sighandlers_and_unblock_sigs
                0x0000000000436e64       0x44 init/lib.a(init.o)
 .text.init_exec
                0x0000000000436ea8      0x174 init/lib.a(init.o)
 .text.run      0x000000000043701c      0x1b8 init/lib.a(init.o)
 .text.mark_terminated
                0x00000000004371d4       0x4c init/lib.a(init.o)
 .text.run_actions
                0x0000000000437220      0x13c init/lib.a(init.o)
 .text.new_init_action
                0x000000000043735c      0x11c init/lib.a(init.o)
 .text.parse_inittab
                0x0000000000437478      0x260 init/lib.a(init.o)
 .text.pause_and_low_level_reboot
                0x00000000004376d8       0x7c init/lib.a(init.o)
 .text.run_shutdown_and_kill_processes
                0x0000000000437754       0xf0 init/lib.a(init.o)
 .text.halt_reboot_pwoff
                0x0000000000437844       0xb8 init/lib.a(init.o)
 .text.restart_handler
                0x00000000004378fc       0xd4 init/lib.a(init.o)
 .text.stop_handler
                0x00000000004379d0       0xd8 init/lib.a(init.o)
 .text.check_delayed_sigs
                0x0000000000437aa8      0x128 init/lib.a(init.o)
 .text.init_main
                0x0000000000437bd0      0x5bc init/lib.a(init.o)
                0x0000000000437bd0                init_main
 .text.bb_ask_confirmation
                0x000000000043818c       0xb0 libbb/lib.a(ask_confirmation.o)
                0x000000000043818c                bb_ask_confirmation
 .text.uid2uname
                0x000000000043823c       0x44 libbb/lib.a(bb_pwd.o)
                0x000000000043823c                uid2uname
 .text.gid2group
                0x0000000000438280       0x44 libbb/lib.a(bb_pwd.o)
                0x0000000000438280                gid2group
 .text.uid2uname_utoa
                0x00000000004382c4       0x58 libbb/lib.a(bb_pwd.o)
                0x00000000004382c4                uid2uname_utoa
 .text.gid2group_utoa
                0x000000000043831c       0x58 libbb/lib.a(bb_pwd.o)
                0x000000000043831c                gid2group_utoa
 .text.index_in_strings
                0x0000000000438374       0x98 libbb/lib.a(compare_string_array.o)
                0x0000000000438374                index_in_strings
 .text.index_in_substrings
                0x000000000043840c       0xdc libbb/lib.a(compare_string_array.o)
                0x000000000043840c                index_in_substrings
 .text.concat_path_file
                0x00000000004384e8       0xb4 libbb/lib.a(concat_path_file.o)
                0x00000000004384e8                concat_path_file
 .text.ask_and_unlink
                0x000000000043859c       0xd8 libbb/lib.a(copy_file.o)
 .text.copy_file
                0x0000000000438674      0x870 libbb/lib.a(copy_file.o)
                0x0000000000438674                copy_file
 .text.crc32_filltable
                0x0000000000438ee4       0xcc libbb/lib.a(crc32.o)
                0x0000000000438ee4                crc32_filltable
 .text.crc32_block_endian0
                0x0000000000438fb0       0x38 libbb/lib.a(crc32.o)
                0x0000000000438fb0                crc32_block_endian0
 .text.create_icmp_socket
                0x0000000000438fe8       0xa8 libbb/lib.a(create_icmp_socket.o)
                0x0000000000438fe8                create_icmp_socket
 .text.device_open
                0x0000000000439090       0xb4 libbb/lib.a(device_open.o)
                0x0000000000439090                device_open
 .text.BB_EXECVP
                0x0000000000439144       0x70 libbb/lib.a(execable.o)
                0x0000000000439144                BB_EXECVP
 .text.fflush_stdout_and_exit
                0x00000000004391b4       0x7c libbb/lib.a(fflush_stdout_and_exit.o)
                0x00000000004391b4                fflush_stdout_and_exit
 .text.find_mount_point
                0x0000000000439230      0x1bc libbb/lib.a(find_mount_point.o)
                0x0000000000439230                find_mount_point
 .text.find_pid_by_name
                0x00000000004393ec      0x1c8 libbb/lib.a(find_pid_by_name.o)
                0x00000000004393ec                find_pid_by_name
 .text.pidlist_reverse
                0x00000000004395b4       0x74 libbb/lib.a(find_pid_by_name.o)
                0x00000000004395b4                pidlist_reverse
 .text.bb_get_chunk_from_file
                0x0000000000439628      0x11c libbb/lib.a(get_line_from_file.o)
                0x0000000000439628                bb_get_chunk_from_file
 .text.xmalloc_fgetline
                0x0000000000439744       0x60 libbb/lib.a(get_line_from_file.o)
                0x0000000000439744                xmalloc_fgetline
 .text.get_shell_name
                0x00000000004397a4       0x98 libbb/lib.a(get_shell_name.o)
                0x00000000004397a4                get_shell_name
 .text.getopt32
                0x000000000043983c      0x7f4 libbb/lib.a(getopt32.o)
                0x000000000043983c                getopt32
 .text.make_human_readable_str
                0x000000000043a030      0x204 libbb/lib.a(human_readable.o)
                0x000000000043a030                make_human_readable_str
 .text.smart_ulltoa5
                0x000000000043a234      0x308 libbb/lib.a(human_readable.o)
                0x000000000043a234                smart_ulltoa5
 .text.INET_resolve
                0x000000000043a53c       0xf8 libbb/lib.a(inet_common.o)
                0x000000000043a53c                INET_resolve
 .text.INET_rresolve
                0x000000000043a634      0x220 libbb/lib.a(inet_common.o)
                0x000000000043a634                INET_rresolve
 .text.bb_info_msg
                0x000000000043a854       0xfc libbb/lib.a(info_msg.o)
                0x000000000043a854                bb_info_msg
 .text.is_in_ino_dev_hashtable
                0x000000000043a950       0xc8 libbb/lib.a(inode_hash.o)
                0x000000000043a950                is_in_ino_dev_hashtable
 .text.add_to_ino_dev_hashtable
                0x000000000043aa18      0x114 libbb/lib.a(inode_hash.o)
                0x000000000043aa18                add_to_ino_dev_hashtable
 .text.is_directory
                0x000000000043ab2c       0x7c libbb/lib.a(isdirectory.o)
                0x000000000043ab2c                is_directory
 .text.deinit_S
                0x000000000043aba8       0x88 libbb/lib.a(lineedit.o)
 .text.put_cur_glyph_and_inc_cursor
                0x000000000043ac30       0xb4 libbb/lib.a(lineedit.o)
 .text.put_till_end_and_adv_cursor
                0x000000000043ace4       0x64 libbb/lib.a(lineedit.o)
 .text.goto_new_line
                0x000000000043ad48       0x5c libbb/lib.a(lineedit.o)
 .text.beep     0x000000000043ada4       0x18 libbb/lib.a(lineedit.o)
 .text.put_prompt
                0x000000000043adbc       0x8c libbb/lib.a(lineedit.o)
 .text.input_backward
                0x000000000043ae48      0x140 libbb/lib.a(lineedit.o)
 .text.redraw   0x000000000043af88       0xac libbb/lib.a(lineedit.o)
 .text.input_delete
                0x000000000043b034       0xb8 libbb/lib.a(lineedit.o)
 .text.input_backspace
                0x000000000043b0ec       0x60 libbb/lib.a(lineedit.o)
 .text.input_forward
                0x000000000043b14c       0x40 libbb/lib.a(lineedit.o)
 .text.free_tab_completion_data
                0x000000000043b18c       0xa8 libbb/lib.a(lineedit.o)
 .text.complete_cmd_dir_file
                0x000000000043b234      0x438 libbb/lib.a(lineedit.o)
 .text.remove_chunk
                0x000000000043b66c       0x34 libbb/lib.a(lineedit.o)
 .text.build_match_prefix
                0x000000000043b6a0      0x4d4 libbb/lib.a(lineedit.o)
 .text.is_special_char
                0x000000000043bb74       0x24 libbb/lib.a(lineedit.o)
 .text.quote_special_chars
                0x000000000043bb98       0xb8 libbb/lib.a(lineedit.o)
 .text.input_tab
                0x000000000043bc50      0x668 libbb/lib.a(lineedit.o)
 .text.new_line_input_t
                0x000000000043c2b8       0x4c libbb/lib.a(lineedit.o)
                0x000000000043c2b8                new_line_input_t
 .text.save_command_ps_at_cur_history
                0x000000000043c304       0x8c libbb/lib.a(lineedit.o)
 .text.get_previous_history
                0x000000000043c390       0x9c libbb/lib.a(lineedit.o)
 .text.get_next_history
                0x000000000043c42c       0xa4 libbb/lib.a(lineedit.o)
 .text.parse_and_put_prompt
                0x000000000043c4d0      0x4b0 libbb/lib.a(lineedit.o)
 .text.win_changed
                0x000000000043c980       0xd4 libbb/lib.a(lineedit.o)
 .text.read_line_input
                0x000000000043ca54      0xb68 libbb/lib.a(lineedit.o)
                0x000000000043ca54                read_line_input
 .text.llist_add_to
                0x000000000043d5bc       0x5c libbb/lib.a(llist.o)
                0x000000000043d5bc                llist_add_to
 .text.llist_add_to_end
                0x000000000043d618       0x6c libbb/lib.a(llist.o)
                0x000000000043d618                llist_add_to_end
 .text.llist_pop
                0x000000000043d684       0x5c libbb/lib.a(llist.o)
                0x000000000043d684                llist_pop
 .text.sanitize_env_if_suid
                0x000000000043d6e0       0xa8 libbb/lib.a(login.o)
                0x000000000043d6e0                sanitize_env_if_suid
 .text.del_loop
                0x000000000043d788       0x84 libbb/lib.a(loop.o)
                0x000000000043d788                del_loop
 .text.set_loop
                0x000000000043d80c      0x310 libbb/lib.a(loop.o)
                0x000000000043d80c                set_loop
 .text.bb_make_directory
                0x000000000043db1c      0x260 libbb/lib.a(make_directory.o)
                0x000000000043db1c                bb_make_directory
 .text.bb_makedev
                0x000000000043dd7c       0x74 libbb/lib.a(makedev.o)
                0x000000000043dd7c                bb_makedev
 .text.match_fstype
                0x000000000043ddf0       0xec libbb/lib.a(match_fstype.o)
                0x000000000043ddf0                match_fstype
 .text.bb_mode_string
                0x000000000043dedc       0xd4 libbb/lib.a(mode_string.o)
                0x000000000043dedc                bb_mode_string
 .text.config_open2
                0x000000000043dfb0       0x60 libbb/lib.a(parse_config.o)
                0x000000000043dfb0                config_open2
 .text.config_open
                0x000000000043e010       0x1c libbb/lib.a(parse_config.o)
                0x000000000043e010                config_open
 .text.config_close
                0x000000000043e02c       0x88 libbb/lib.a(parse_config.o)
                0x000000000043e02c                config_close
 .text.config_read
                0x000000000043e0b4      0x320 libbb/lib.a(parse_config.o)
                0x000000000043e0b4                config_read
 .text.bb_parse_mode
                0x000000000043e3d4      0x2c4 libbb/lib.a(parse_mode.o)
                0x000000000043e3d4                bb_parse_mode
 .text.hex_to_bin
                0x000000000043e698       0x34 libbb/lib.a(percent_decode.o)
 .text.percent_decode_in_place
                0x000000000043e6cc      0x12c libbb/lib.a(percent_decode.o)
                0x000000000043e6cc                percent_decode_in_place
 .text.bb_perror_nomsg_and_die
                0x000000000043e7f8       0x18 libbb/lib.a(perror_nomsg_and_die.o)
                0x000000000043e7f8                bb_perror_nomsg_and_die
 .text.write_pidfile
                0x000000000043e810      0x100 libbb/lib.a(pidfile.o)
                0x000000000043e810                write_pidfile
 .text.printable_string
                0x000000000043e910      0x124 libbb/lib.a(printable_string.o)
                0x000000000043e910                printable_string
 .text.bb_process_escape_sequence
                0x000000000043ea34       0xf0 libbb/lib.a(process_escape_sequence.o)
                0x000000000043ea34                bb_process_escape_sequence
 .text.get_cached
                0x000000000043eb24       0xf0 libbb/lib.a(procps.o)
 .text.get_cached_username
                0x000000000043ec14       0x28 libbb/lib.a(procps.o)
                0x000000000043ec14                get_cached_username
 .text.get_cached_groupname
                0x000000000043ec3c       0x28 libbb/lib.a(procps.o)
                0x000000000043ec3c                get_cached_groupname
 .text.read_to_buf
                0x000000000043ec64       0xa4 libbb/lib.a(procps.o)
 .text.free_procps_scan
                0x000000000043ed08       0x74 libbb/lib.a(procps.o)
                0x000000000043ed08                free_procps_scan
 .text.fast_strtoul_10
                0x000000000043ed7c       0x54 libbb/lib.a(procps.o)
 .text.skip_fields
                0x000000000043edd0       0x24 libbb/lib.a(procps.o)
 .text.procps_scan
                0x000000000043edf4      0x554 libbb/lib.a(procps.o)
                0x000000000043edf4                procps_scan
 .text.read_cmdline
                0x000000000043f348      0x1b0 libbb/lib.a(procps.o)
                0x000000000043f348                read_cmdline
 .text.bb_progress_init
                0x000000000043f4f8       0x50 libbb/lib.a(progress.o)
                0x000000000043f4f8                bb_progress_init
 .text.bb_progress_update
                0x000000000043f548      0x538 libbb/lib.a(progress.o)
                0x000000000043f548                bb_progress_update
 .text.read_key
                0x000000000043fa80      0x2b4 libbb/lib.a(read_key.o)
                0x000000000043fa80                read_key
 .text.nonblock_immune_read
                0x000000000043fd34       0xe8 libbb/lib.a(read_printf.o)
                0x000000000043fd34                nonblock_immune_read
 .text.xmalloc_read
                0x000000000043fe1c      0x178 libbb/lib.a(read_printf.o)
                0x000000000043fe1c                xmalloc_read
 .text.xmalloc_open_read_close
                0x000000000043ff94       0x84 libbb/lib.a(read_printf.o)
                0x000000000043ff94                xmalloc_open_read_close
 .text.xread    0x0000000000440018       0x5c libbb/lib.a(read_printf.o)
                0x0000000000440018                xread
 .text.setup_unzip_on_fd
                0x0000000000440074       0x78 libbb/lib.a(read_printf.o)
                0x0000000000440074                setup_unzip_on_fd
 .text.open_zipped
                0x00000000004400ec       0xa4 libbb/lib.a(read_printf.o)
                0x00000000004400ec                open_zipped
 .text.xmalloc_open_zipped_read_close
                0x0000000000440190       0xac libbb/lib.a(read_printf.o)
                0x0000000000440190                xmalloc_open_zipped_read_close
 .text.true_action
                0x000000000044023c        0x8 libbb/lib.a(recursive_action.o)
 .text.recursive_action
                0x0000000000440244      0x298 libbb/lib.a(recursive_action.o)
                0x0000000000440244                recursive_action
 .text.remove_file
                0x00000000004404dc      0x34c libbb/lib.a(remove_file.o)
                0x00000000004404dc                remove_file
 .text.rtc_adjtime_is_utc
                0x0000000000440828       0xbc libbb/lib.a(rtc.o)
                0x0000000000440828                rtc_adjtime_is_utc
 .text.rtc_xopen
                0x00000000004408e4       0xc0 libbb/lib.a(rtc.o)
                0x00000000004408e4                rtc_xopen
 .text.rtc_read_tm
                0x00000000004409a4       0x7c libbb/lib.a(rtc.o)
                0x00000000004409a4                rtc_read_tm
 .text.rtc_tm2time
                0x0000000000440a20       0xe4 libbb/lib.a(rtc.o)
                0x0000000000440a20                rtc_tm2time
 .text.safe_gethostname
                0x0000000000440b04       0x5c libbb/lib.a(safe_gethostname.o)
                0x0000000000440b04                safe_gethostname
 .text.safe_poll
                0x0000000000440b60       0xb0 libbb/lib.a(safe_poll.o)
                0x0000000000440b60                safe_poll
 .text.safe_strncpy
                0x0000000000440c10       0x30 libbb/lib.a(safe_strncpy.o)
                0x0000000000440c10                safe_strncpy
 .text.overlapping_strcpy
                0x0000000000440c40       0x28 libbb/lib.a(safe_strncpy.o)
                0x0000000000440c40                overlapping_strcpy
 .text.record_signo
                0x0000000000440c68       0x18 libbb/lib.a(signals.o)
                0x0000000000440c68                record_signo
 .text.sigaction_set
                0x0000000000440c80       0x18 libbb/lib.a(signals.o)
                0x0000000000440c80                sigaction_set
 .text.sigprocmask_allsigs
                0x0000000000440c98       0x54 libbb/lib.a(signals.o)
                0x0000000000440c98                sigprocmask_allsigs
 .text.bb_signals
                0x0000000000440cec       0x8c libbb/lib.a(signals.o)
                0x0000000000440cec                bb_signals
 .text.bb_signals_recursive_norestart
                0x0000000000440d78       0xa0 libbb/lib.a(signals.o)
                0x0000000000440d78                bb_signals_recursive_norestart
 .text.sig_unblock
                0x0000000000440e18       0x68 libbb/lib.a(signals.o)
                0x0000000000440e18                sig_unblock
 .text.kill_myself_with_sig
                0x0000000000440e80       0x5c libbb/lib.a(signals.o)
                0x0000000000440e80                kill_myself_with_sig
 .text.signal_no_SA_RESTART_empty_mask
                0x0000000000440edc       0x78 libbb/lib.a(signals.o)
                0x0000000000440edc                signal_no_SA_RESTART_empty_mask
 .text.bb_simplify_abs_path_inplace
                0x0000000000440f54       0xd0 libbb/lib.a(simplify_path.o)
                0x0000000000440f54                bb_simplify_abs_path_inplace
 .text.bb_simplify_path
                0x0000000000441024       0xb4 libbb/lib.a(simplify_path.o)
                0x0000000000441024                bb_simplify_path
 .text.skip_whitespace
                0x00000000004410d8       0x5c libbb/lib.a(skip_whitespace.o)
                0x00000000004410d8                skip_whitespace
 .text.skip_non_whitespace
                0x0000000000441134       0x6c libbb/lib.a(skip_whitespace.o)
                0x0000000000441134                skip_non_whitespace
 .text.skip_dev_pfx
                0x00000000004411a0       0x54 libbb/lib.a(skip_whitespace.o)
                0x00000000004411a0                skip_dev_pfx
 .text.str_tolower
                0x00000000004411f4       0x44 libbb/lib.a(str_tolower.o)
                0x00000000004411f4                str_tolower
 .text.get_signum
                0x0000000000441238       0xd0 libbb/lib.a(u_signal_names.o)
                0x0000000000441238                get_signum
 .text.get_signame
                0x0000000000441308       0x48 libbb/lib.a(u_signal_names.o)
                0x0000000000441308                get_signame
 .text.print_signames
                0x0000000000441350       0x84 libbb/lib.a(u_signal_names.o)
                0x0000000000441350                print_signames
 .text.bb_uuencode
                0x00000000004413d4       0xd0 libbb/lib.a(uuencode.o)
                0x00000000004413d4                bb_uuencode
 .text.spawn    0x00000000004414a4       0xd0 libbb/lib.a(vfork_daemon_rexec.o)
                0x00000000004414a4                spawn
 .text.run_nofork_applet
                0x0000000000441574      0x230 libbb/lib.a(vfork_daemon_rexec.o)
                0x0000000000441574                run_nofork_applet
 .text.spawn_and_wait
                0x00000000004417a4       0xfc libbb/lib.a(vfork_daemon_rexec.o)
                0x00000000004417a4                spawn_and_wait
 .text.bb_daemonize_or_rexec
                0x00000000004418a0      0x19c libbb/lib.a(vfork_daemon_rexec.o)
                0x00000000004418a0                bb_daemonize_or_rexec
 .text.bb_sanitize_stdio
                0x0000000000441a3c       0x18 libbb/lib.a(vfork_daemon_rexec.o)
                0x0000000000441a3c                bb_sanitize_stdio
 .text.fopen_or_warn
                0x0000000000441a54       0x64 libbb/lib.a(wfopen.o)
                0x0000000000441a54                fopen_or_warn
 .text.fopen_for_read
                0x0000000000441ab8       0x1c libbb/lib.a(wfopen.o)
                0x0000000000441ab8                fopen_for_read
 .text.xfopen_for_read
                0x0000000000441ad4       0x1c libbb/lib.a(wfopen.o)
                0x0000000000441ad4                xfopen_for_read
 .text.fopen_or_warn_stdin
                0x0000000000441af0       0x6c libbb/lib.a(wfopen_input.o)
                0x0000000000441af0                fopen_or_warn_stdin
 .text.xfopen_stdin
                0x0000000000441b5c       0x48 libbb/lib.a(wfopen_input.o)
                0x0000000000441b5c                xfopen_stdin
 .text.open_or_warn_stdin
                0x0000000000441ba4       0x64 libbb/lib.a(wfopen_input.o)
                0x0000000000441ba4                open_or_warn_stdin
 .text.xstrtoul_range_sfx
                0x0000000000441c08      0x1a8 libbb/lib.a(xatonum.o)
                0x0000000000441c08                xstrtoul_range_sfx
 .text.xstrtol_range_sfx
                0x0000000000441db0       0xec libbb/lib.a(xatonum.o)
                0x0000000000441db0                xstrtol_range_sfx
 .text.xstrtol  0x0000000000441e9c       0x40 libbb/lib.a(xatonum.o)
                0x0000000000441e9c                xstrtol
 .text.xatoul_sfx
                0x0000000000441edc       0x40 libbb/lib.a(xatonum.o)
                0x0000000000441edc                xatoul_sfx
 .text.xatoul   0x0000000000441f1c       0x18 libbb/lib.a(xatonum.o)
                0x0000000000441f1c                xatoul
 .text.xatoul_range
                0x0000000000441f34       0x40 libbb/lib.a(xatonum.o)
                0x0000000000441f34                xatoul_range
 .text.xatoul_range_sfx
                0x0000000000441f74       0x44 libbb/lib.a(xatonum.o)
                0x0000000000441f74                xatoul_range_sfx
 .text.xstrtoul
                0x0000000000441fb8       0x3c libbb/lib.a(xatonum.o)
                0x0000000000441fb8                xstrtoul
 .text.xatoi_positive
                0x0000000000441ff4       0x20 libbb/lib.a(xatonum.o)
                0x0000000000441ff4                xatoi_positive
 .text.xatou16  0x0000000000442014       0x3c libbb/lib.a(xatonum.o)
                0x0000000000442014                xatou16
 .text.setsockopt_reuseaddr
                0x0000000000442050       0x44 libbb/lib.a(xconnect.o)
                0x0000000000442050                setsockopt_reuseaddr
 .text.setsockopt_broadcast
                0x0000000000442094       0x44 libbb/lib.a(xconnect.o)
                0x0000000000442094                setsockopt_broadcast
 .text.setsockopt_bindtodevice
                0x00000000004420d8       0x98 libbb/lib.a(xconnect.o)
                0x00000000004420d8                setsockopt_bindtodevice
 .text.xconnect
                0x0000000000442170       0x94 libbb/lib.a(xconnect.o)
                0x0000000000442170                xconnect
 .text.bb_lookup_port
                0x0000000000442204       0xd8 libbb/lib.a(xconnect.o)
                0x0000000000442204                bb_lookup_port
 .text.set_nport
                0x00000000004422dc       0x1c libbb/lib.a(xconnect.o)
                0x00000000004422dc                set_nport
 .text.str2sockaddr
                0x00000000004422f8      0x27c libbb/lib.a(xconnect.o)
 .text.host2sockaddr
                0x0000000000442574       0x1c libbb/lib.a(xconnect.o)
                0x0000000000442574                host2sockaddr
 .text.xhost2sockaddr
                0x0000000000442590       0x1c libbb/lib.a(xconnect.o)
                0x0000000000442590                xhost2sockaddr
 .text.xdotted2sockaddr
                0x00000000004425ac       0x1c libbb/lib.a(xconnect.o)
                0x00000000004425ac                xdotted2sockaddr
 .text.xconnect_stream
                0x00000000004425c8       0x70 libbb/lib.a(xconnect.o)
                0x00000000004425c8                xconnect_stream
 .text.sockaddr2str
                0x0000000000442638       0xbc libbb/lib.a(xconnect.o)
 .text.xmalloc_sockaddr2dotted
                0x00000000004426f4       0x1c libbb/lib.a(xconnect.o)
                0x00000000004426f4                xmalloc_sockaddr2dotted
 .text.xmalloc_sockaddr2dotted_noport
                0x0000000000442710       0x1c libbb/lib.a(xconnect.o)
                0x0000000000442710                xmalloc_sockaddr2dotted_noport
 .text.xrealloc_getcwd_or_warn
                0x000000000044272c       0xec libbb/lib.a(xgetcwd.o)
                0x000000000044272c                xrealloc_getcwd_or_warn
 .text.xmalloc_readlink
                0x0000000000442818       0xc0 libbb/lib.a(xreadlink.o)
                0x0000000000442818                xmalloc_readlink
 .text.xmalloc_follow_symlinks
                0x00000000004428d8      0x17c libbb/lib.a(xreadlink.o)
                0x00000000004428d8                xmalloc_follow_symlinks
 .text.xmalloc_readlink_or_warn
                0x0000000000442a54       0x9c libbb/lib.a(xreadlink.o)
                0x0000000000442a54                xmalloc_readlink_or_warn
 .text.xmalloc_realpath
                0x0000000000442af0       0x44 libbb/lib.a(xreadlink.o)
                0x0000000000442af0                xmalloc_realpath
 .text.xrealloc_vector_helper
                0x0000000000442b34       0xb4 libbb/lib.a(xrealloc_vector.o)
                0x0000000000442b34                xrealloc_vector_helper
 .text.bb_pstrcmp
                0x0000000000442be8       0x20 libbb/lib.a(bb_qsort.o)
                0x0000000000442be8                bb_pstrcmp
 .text.qsort_string_vector
                0x0000000000442c08       0x1c libbb/lib.a(bb_qsort.o)
                0x0000000000442c08                qsort_string_vector
 .text.concat_subpath_file
                0x0000000000442c24       0x5c libbb/lib.a(concat_subpath_file.o)
                0x0000000000442c24                concat_subpath_file
 *(SORT(.text.*personality*))
 *(SORT(.gnu.warning))
 *(SORT(.mips16.fn.*))
 *(SORT(.mips16.call.*))

.MIPS.stubs     0x0000000000442c80      0xdf0
 .MIPS.stubs    0x0000000000442c80      0xdf0 /opt/workspace/rtl8198/rtl819x/toolchain/rsdk-1.3.6-5281-EB-2.6.30-0.9.30/lib/crt1.o
                0x0000000000442c80                longjmp
                0x0000000000442c90                stpcpy
                0x0000000000442ca0                __umoddi3@@GLIBC_2.0
                0x0000000000442cb0                chroot
                0x0000000000442cc0                strcpy
                0x0000000000442cd0                setrlimit64
                0x0000000000442ce0                unsetenv
                0x0000000000442cf0                mkstemp64
                0x0000000000442d00                waitpid
                0x0000000000442d10                __divdi3
                0x0000000000442d20                ioctl
                0x0000000000442d30                getgid
                0x0000000000442d40                sysconf
                0x0000000000442d50                printf
                0x0000000000442d60                connect
                0x0000000000442d80                shmctl
                0x0000000000442d90                strerror
                0x0000000000442da0                geteuid
                0x0000000000442db0                memmove
                0x0000000000442dc0                getopt_long
                0x0000000000442dd0                snprintf
                0x0000000000442de0                mknod
                0x0000000000442df0                getgrgid
                0x0000000000442e00                times
                0x0000000000442e10                statfs64
                0x0000000000442e20                getenv
                0x0000000000442e30                getegid
                0x0000000000442e40                setlinebuf
                0x0000000000442e50                bsearch
                0x0000000000442e60                usleep
                0x0000000000442e70                execve
                0x0000000000442e80                semget
                0x0000000000442e90                getpagesize
                0x0000000000442ea0                getpid
                0x0000000000442eb0                qsort
                0x0000000000442ec0                fscanf
                0x0000000000442ed0                fcntl64
                0x0000000000442ee0                getrlimit64
                0x0000000000442ef0                shmat
                0x0000000000442f00                memcpy
                0x0000000000442f10                execl
                0x0000000000442f20                readlink
                0x0000000000442f30                puts
                0x0000000000442f40                dup2
                0x0000000000442f50                getuid
                0x0000000000442f60                semctl
                0x0000000000442f70                feof
                0x0000000000442f80                malloc
                0x0000000000442f90                isatty
                0x0000000000442fa0                sleep
                0x0000000000442fb0                sysinfo
                0x0000000000442fc0                vsnprintf
                0x0000000000442fd0                strtoll
                0x0000000000442fe0                recvfrom
                0x0000000000442ff0                strtoul
                0x0000000000443000                gethostbyaddr
                0x0000000000443010                settimeofday
                0x0000000000443020                rmdir
                0x0000000000443030                socket
                0x0000000000443040                select
                0x0000000000443050                init_module
                0x0000000000443060                lchown
                0x0000000000443070                delete_module
                0x0000000000443080                fflush
                0x0000000000443090                realpath
                0x00000000004430a0                putenv
                0x00000000004430b0                sigaddset
                0x00000000004430c0                chown
                0x00000000004430d0                strncasecmp
                0x00000000004430e0                setpgid
                0x00000000004430f0                freeaddrinfo
                0x0000000000443100                __fgetc_unlocked
                0x0000000000443110                gmtime_r
                0x0000000000443120                chmod
                0x0000000000443130                getnameinfo
                0x0000000000443140                fstat64
                0x0000000000443150                alarm
                0x0000000000443160                strtol
                0x0000000000443170                pipe
                0x0000000000443180                getpgrp
                0x0000000000443190                strnlen
                0x00000000004431a0                uname
                0x00000000004431b0                rename
                0x00000000004431c0                strrchr
                0x00000000004431d0                strtod
                0x00000000004431e0                write
                0x00000000004431f0                fprintf
                0x0000000000443200                kill
                0x0000000000443210                fputs_unlocked
                0x0000000000443220                ctime
                0x0000000000443230                strcat
                0x0000000000443240                bind
                0x0000000000443250                getmntent_r
                0x0000000000443260                inet_addr
                0x0000000000443270                vprintf
                0x0000000000443280                umount2
                0x0000000000443290                if_nametoindex
                0x00000000004432a0                reboot
                0x00000000004432b0                chdir
                0x00000000004432c0                shmdt
                0x00000000004432d0                setsockopt
                0x00000000004432e0                shmget
                0x00000000004432f0                wait
                0x0000000000443300                umask
                0x0000000000443310                dprintf
                0x0000000000443320                mktime
                0x0000000000443330                ferror
                0x0000000000443340                rand
                0x0000000000443350                setgid
                0x0000000000443360                signal
                0x0000000000443370                read
                0x0000000000443380                openlog
                0x0000000000443390                closelog
                0x00000000004433a0                strncmp
                0x00000000004433b0                __cmsg_nxthdr
                0x00000000004433c0                strncpy
                0x00000000004433d0                unlink
                0x00000000004433e0                sync
                0x00000000004433f0                setenv
                0x0000000000443400                strcasecmp
                0x0000000000443410                sendto
                0x0000000000443420                realloc
                0x0000000000443430                __udivdi3@@GLIBC_2.0
                0x0000000000443440                readdir64
                0x0000000000443450                strtok
                0x0000000000443460                memcmp
                0x0000000000443470                listen
                0x0000000000443480                fdopen
                0x0000000000443490                fork
                0x00000000004434a0                sscanf
                0x00000000004434b0                execv
                0x00000000004434c0                setmntent
                0x00000000004434d0                execlp
                0x00000000004434e0                sigaction
                0x00000000004434f0                endmntent
                0x0000000000443500                killpg
                0x0000000000443510                fread
                0x0000000000443520                ttyname_r
                0x0000000000443530                __uClibc_main
                0x0000000000443540                strdup
                0x0000000000443550                inet_aton
                0x0000000000443560                strtoull
                0x0000000000443570                gettimeofday
                0x0000000000443580                getopt
                0x0000000000443590                localtime
                0x00000000004435a0                memset
                0x00000000004435b0                fnmatch
                0x00000000004435c0                srand
                0x00000000004435d0                clearerr
                0x00000000004435e0                mallopt
                0x00000000004435f0                fclose
                0x0000000000443600                open64
                0x0000000000443610                inet_ntoa
                0x0000000000443620                getppid
                0x0000000000443630                tcgetattr
                0x0000000000443640                time
                0x0000000000443650                opendir
                0x0000000000443660                getgroups
                0x0000000000443670                poll
                0x0000000000443680                syslog
                0x0000000000443690                mount
                0x00000000004436a0                strcmp
                0x00000000004436b0                getpwuid
                0x00000000004436c0                dup
                0x00000000004436d0                getcwd
                0x00000000004436e0                gethostbyname
                0x00000000004436f0                strsignal
                0x0000000000443700                getpwnam
                0x0000000000443710                getservbyname
                0x0000000000443720                sprintf
                0x0000000000443730                strcspn
                0x0000000000443740                umount
                0x0000000000443750                vfork
                0x0000000000443760                strsep
                0x0000000000443770                localtime_r
                0x0000000000443780                getaddrinfo
                0x0000000000443790                strftime
                0x00000000004437a0                getmntent
                0x00000000004437b0                access
                0x00000000004437c0                strptime
                0x00000000004437d0                tcgetpgrp
                0x00000000004437e0                __errno_location
                0x00000000004437f0                semop
                0x0000000000443800                exit
                0x0000000000443810                stime
                0x0000000000443820                klogctl
                0x0000000000443830                sigdelset
                0x0000000000443840                getgrnam
                0x0000000000443850                atoi
                0x0000000000443860                fileno
                0x0000000000443870                __moddi3
                0x0000000000443880                _setjmp
                0x0000000000443890                fgets_unlocked
                0x00000000004438a0                getline
                0x00000000004438b0                _exit
                0x00000000004438c0                strspn
                0x00000000004438d0                strlen
                0x00000000004438e0                lseek64
                0x00000000004438f0                strchr
                0x0000000000443900                fputs
                0x0000000000443910                execvp
                0x0000000000443920                setsid
                0x0000000000443930                closedir
                0x0000000000443940                vasprintf
                0x0000000000443950                recvmsg
                0x0000000000443960                strchrnul
                0x0000000000443970                tzset
                0x0000000000443980                setuid
                0x0000000000443990                tcsetattr
                0x00000000004439a0                mkdir
                0x00000000004439b0                close
                0x00000000004439c0                vfprintf
                0x00000000004439d0                strpbrk
                0x00000000004439e0                tcsetpgrp
                0x00000000004439f0                sigsuspend
                0x0000000000443a00                raise
                0x0000000000443a10                free
                0x0000000000443a20                sigprocmask
                0x0000000000443a30                __fputc_unlocked
                0x0000000000443a40                fopen64
                0x0000000000443a50                ftruncate64

.fini           0x0000000000443a70       0x50
 *(SORT(.fini))
 .fini          0x0000000000443a70       0x1c /opt/workspace/rtl8198/rtl819x/toolchain/rsdk-1.3.6-5281-EB-2.6.30-0.9.30/lib/crti.o
                0x0000000000443a70                _fini
 .fini          0x0000000000443a8c        0xc /opt/workspace/rtl8198/rtl819x/toolchain/rsdk-1.3.6-5281-EB-2.6.30-0.9.30/lib/crtn.o
 .fini          0x0000000000443a98       0x28 /opt/workspace/rtl8198/rtl819x/toolchain/rsdk-1.3.6-5281-EB-2.6.30-0.9.30/lib/crtbeginS.o
                0x0000000000443ac0                PROVIDE (__etext, .)
                0x0000000000443ac0                PROVIDE (_etext, .)
                0x0000000000443ac0                PROVIDE (etext, .)

.rodata         0x0000000000443ac0     0x729b
 *(SORT(.rodata) .rodata.* .gnu.linkonce.r.*)
 .rodata        0x0000000000443ac0      0x2a0 libbb/lib.a(appletlib.o)
 .rodata        0x0000000000443d60       0x10 libbb/lib.a(verror_msg.o)
 .rodata        0x0000000000443d70       0x10 libbb/lib.a(xfuncs.o)
 .rodata        0x0000000000443d80      0x180 libbb/lib.a(xfuncs_printf.o)
 .rodata        0x0000000000443f00       0x30 libbb/lib.a(copyfd.o)
 .rodata        0x0000000000443f30       0x10 libbb/lib.a(perror_msg.o)
 .rodata        0x0000000000443f40       0x70 libbb/lib.a(time.o)
 .rodata        0x0000000000443fb0      0x140 miscutils/lib.a(flash_eraseall.o)
 .rodata        0x00000000004440f0       0x70 miscutils/lib.a(flash_lock_unlock.o)
 .rodata        0x0000000000444160       0x40 miscutils/lib.a(watchdog.o)
 .rodata        0x00000000004441a0       0x40 modutils/lib.a(insmod.o)
 .rodata        0x00000000004441e0       0x90 modutils/lib.a(lsmod.o)
 .rodata        0x0000000000444270       0xc0 modutils/lib.a(modutils.o)
 .rodata        0x0000000000444330       0x30 modutils/lib.a(rmmod.o)
 .rodata        0x0000000000444360       0xe0 networking/lib.a(ftpgetput.o)
 .rodata        0x0000000000444440      0x140 networking/lib.a(ifconfig.o)
 .rodata        0x0000000000444580      0x400 networking/lib.a(interface.o)
 .rodata        0x0000000000444980      0x300 networking/lib.a(ping.o)
 .rodata        0x0000000000444c80      0x1d0 networking/lib.a(route.o)
 .rodata        0x0000000000444e50       0x20 networking/lib.a(vconfig.o)
 .rodata        0x0000000000444e70      0x350 networking/lib.a(wget.o)
 .rodata        0x00000000004451c0      0x3b0 networking/udhcp/lib.a(dhcpc.o)
 .rodata        0x0000000000445570       0x70 networking/udhcp/lib.a(packet.o)
 .rodata        0x00000000004455e0       0x20 networking/udhcp/lib.a(signalpipe.o)
 .rodata        0x0000000000445600       0x60 networking/udhcp/lib.a(socket.o)
 .rodata        0x0000000000445660       0xf0 networking/udhcp/lib.a(common.o)
 .rodata        0x0000000000445750       0xa0 procps/lib.a(kill.o)
 .rodata        0x00000000004457f0       0x10 procps/lib.a(pidof.o)
 .rodata        0x0000000000445800       0x50 procps/lib.a(ps.o)
 .rodata        0x0000000000445850       0x70 procps/lib.a(uptime.o)
 .rodata        0x00000000004458c0      0xe00 shell/lib.a(ash.o)
 .rodata        0x00000000004466c0       0x90 shell/lib.a(math.o)
 .rodata        0x0000000000446750      0x1b0 shell/lib.a(shell_common.o)
 .rodata        0x0000000000446900       0x50 sysklogd/lib.a(klogd.o)
 .rodata        0x0000000000446950       0x90 sysklogd/lib.a(logread.o)
 .rodata        0x00000000004469e0      0x250 sysklogd/lib.a(syslogd_and_logger.o)
 .rodata        0x0000000000446c30       0x20 util-linux/lib.a(dmesg.o)
 .rodata        0x0000000000446c50       0x70 util-linux/lib.a(hwclock.o)
 .rodata        0x0000000000446cc0      0x130 util-linux/lib.a(mount.o)
 .rodata        0x0000000000446df0       0x80 util-linux/lib.a(switch_root.o)
 .rodata        0x0000000000446e70       0x90 util-linux/lib.a(umount.o)
 .rodata        0x0000000000446f00      0x180 archival/lib.a(tar.o)
 .rodata        0x0000000000447080       0xe0 archival/libarchive/lib.a(data_extract_all.o)
 .rodata        0x0000000000447160       0xc0 archival/libarchive/lib.a(data_extract_to_command.o)
 .rodata        0x0000000000447220       0xe0 archival/libarchive/lib.a(get_header_tar.o)
 .rodata        0x0000000000447300       0x20 archival/libarchive/lib.a(get_header_tar_gz.o)
 .rodata        0x0000000000447320       0x40 archival/libarchive/lib.a(header_verbose_list.o)
 .rodata        0x0000000000447360       0x10 archival/libarchive/lib.a(seek_by_jump.o)
 .rodata        0x0000000000447370       0x60 archival/libarchive/lib.a(decompress_unzip.o)
 .rodata        0x00000000004473d0       0x10 console-tools/lib.a(clear.o)
 .rodata        0x00000000004473e0       0x10 coreutils/lib.a(basename.o)
 .rodata        0x00000000004473f0       0x10 coreutils/lib.a(cat.o)
 .rodata        0x0000000000447400       0x20 coreutils/lib.a(chmod.o)
 .rodata        0x0000000000447420       0x30 coreutils/lib.a(cp.o)
 .rodata        0x0000000000447450       0xc0 coreutils/lib.a(date.o)
 .rodata        0x0000000000447510       0xe0 coreutils/lib.a(df.o)
 .rodata        0x00000000004475f0       0x10 coreutils/lib.a(echo.o)
 .rodata        0x0000000000447600       0x20 coreutils/lib.a(ln.o)
 .rodata        0x0000000000447620       0xe0 coreutils/lib.a(ls.o)
 .rodata        0x0000000000447700       0x20 coreutils/lib.a(mkdir.o)
 .rodata        0x0000000000447720       0x70 coreutils/lib.a(mv.o)
 .rodata        0x0000000000447790       0x60 coreutils/lib.a(printf.o)
 .rodata        0x00000000004477f0       0x30 coreutils/lib.a(rm.o)
 .rodata        0x0000000000447820       0x80 coreutils/lib.a(test.o)
 .rodata        0x00000000004478a0       0x10 coreutils/lib.a(touch.o)
 .rodata        0x00000000004478b0       0x20 coreutils/lib.a(uname.o)
 .rodata        0x00000000004478d0       0x10 coreutils/libcoreutils/lib.a(cp_mv_stat.o)
 .rodata        0x00000000004478e0       0x10 coreutils/libcoreutils/lib.a(getopt_mk_fifo_nod.o)
 .rodata        0x00000000004478f0       0x10 init/lib.a(halt.o)
 .rodata        0x0000000000447900      0x2a0 init/lib.a(init.o)
 .rodata        0x0000000000447ba0       0x10 libbb/lib.a(concat_path_file.o)
 .rodata        0x0000000000447bb0      0x190 libbb/lib.a(copy_file.o)
 .rodata        0x0000000000447d40       0x20 libbb/lib.a(find_mount_point.o)
 .rodata        0x0000000000447d60       0x10 libbb/lib.a(get_shell_name.o)
 .rodata        0x0000000000447d70       0x10 libbb/lib.a(getopt32.o)
 .rodata        0x0000000000447d80       0x40 libbb/lib.a(human_readable.o)
 .rodata        0x0000000000447dc0       0x10 libbb/lib.a(inet_common.o)
 .rodata        0x0000000000447dd0       0x10 libbb/lib.a(info_msg.o)
 .rodata        0x0000000000447de0       0x10 libbb/lib.a(inode_hash.o)
 .rodata        0x0000000000447df0       0xa0 libbb/lib.a(lineedit.o)
 .rodata        0x0000000000447e90       0x20 libbb/lib.a(loop.o)
 .rodata        0x0000000000447eb0       0x40 libbb/lib.a(make_directory.o)
 .rodata        0x0000000000447ef0       0x10 libbb/lib.a(makedev.o)
 .rodata        0x0000000000447f00       0x30 libbb/lib.a(parse_config.o)
 .rodata        0x0000000000447f30       0x50 libbb/lib.a(procps.o)
 .rodata        0x0000000000447f80       0x70 libbb/lib.a(progress.o)
 .rodata        0x0000000000447ff0       0x50 libbb/lib.a(read_printf.o)
 .rodata        0x0000000000448040       0xa0 libbb/lib.a(remove_file.o)
 .rodata        0x00000000004480e0       0x60 libbb/lib.a(rtc.o)
 .rodata        0x0000000000448140       0x10 libbb/lib.a(safe_gethostname.o)
 .rodata        0x0000000000448150       0x10 libbb/lib.a(safe_poll.o)
 .rodata        0x0000000000448160       0x10 libbb/lib.a(skip_whitespace.o)
 .rodata        0x0000000000448170       0x10 libbb/lib.a(u_signal_names.o)
 .rodata        0x0000000000448180       0x10 libbb/lib.a(vfork_daemon_rexec.o)
 .rodata        0x0000000000448190       0x10 libbb/lib.a(wfopen.o)
 .rodata        0x00000000004481a0       0x10 libbb/lib.a(wfopen_input.o)
 .rodata        0x00000000004481b0       0xa0 libbb/lib.a(xatonum.o)
 .rodata        0x0000000000448250       0x80 libbb/lib.a(xconnect.o)
 .rodata        0x00000000004482d0       0x10 libbb/lib.a(xgetcwd.o)
 .rodata        0x00000000004482e0       0x30 libbb/lib.a(xreadlink.o)
 .rodata.applet_nameofs
                0x0000000000448310       0x6c libbb/lib.a(appletlib.o)
                0x0000000000448310                applet_nameofs
 .rodata.applet_names
                0x000000000044837c      0x155 libbb/lib.a(appletlib.o)
                0x000000000044837c                applet_names
 .rodata.packed_usage
                0x00000000004484d1     0x155e libbb/lib.a(appletlib.o)
 *fill*         0x0000000000449a2f        0x1 00
 .rodata.const_int_0
                0x0000000000449a30        0x4 libbb/lib.a(messages.o)
                0x0000000000449a30                const_int_0
 .rodata.const_int_1
                0x0000000000449a34        0x4 libbb/lib.a(messages.o)
                0x0000000000449a34                const_int_1
 .rodata.bb_PATH_root_path
                0x0000000000449a38       0x23 libbb/lib.a(messages.o)
                0x0000000000449a38                bb_PATH_root_path
 .rodata.bb_default_login_shell
                0x0000000000449a5b        0x9 libbb/lib.a(messages.o)
                0x0000000000449a5b                bb_default_login_shell
 .rodata.bb_busybox_exec_path
                0x0000000000449a64        0xf libbb/lib.a(messages.o)
                0x0000000000449a64                bb_busybox_exec_path
 .rodata.bb_hexdigits_upcase
                0x0000000000449a73       0x11 libbb/lib.a(messages.o)
                0x0000000000449a73                bb_hexdigits_upcase
 .rodata.bb_msg_standard_output
                0x0000000000449a84       0x10 libbb/lib.a(messages.o)
                0x0000000000449a84                bb_msg_standard_output
 .rodata.bb_msg_standard_input
                0x0000000000449a94        0xf libbb/lib.a(messages.o)
                0x0000000000449a94                bb_msg_standard_input
 .rodata.bb_msg_requires_arg
                0x0000000000449aa3       0x18 libbb/lib.a(messages.o)
                0x0000000000449aa3                bb_msg_requires_arg
 .rodata.bb_msg_perm_denied_are_you_root
                0x0000000000449abb       0x22 libbb/lib.a(messages.o)
                0x0000000000449abb                bb_msg_perm_denied_are_you_root
 .rodata.bb_msg_can_not_create_raw_socket
                0x0000000000449add       0x18 libbb/lib.a(messages.o)
                0x0000000000449add                bb_msg_can_not_create_raw_socket
 .rodata.bb_msg_unknown
                0x0000000000449af5        0xa libbb/lib.a(messages.o)
                0x0000000000449af5                bb_msg_unknown
 .rodata.bb_msg_invalid_date
                0x0000000000449aff       0x12 libbb/lib.a(messages.o)
                0x0000000000449aff                bb_msg_invalid_date
 .rodata.bb_msg_memory_exhausted
                0x0000000000449b11        0xe libbb/lib.a(messages.o)
                0x0000000000449b11                bb_msg_memory_exhausted
 .rodata.bb_banner
                0x0000000000449b1f       0x2a libbb/lib.a(messages.o)
                0x0000000000449b1f                bb_banner
 .rodata.V.2    0x0000000000449b49        0x1 miscutils/lib.a(watchdog.o)
 *fill*         0x0000000000449b4a        0x2 00
 .rodata.suffixes.0
                0x0000000000449b4c       0x18 miscutils/lib.a(watchdog.o)
 .rodata.enable.1
                0x0000000000449b64        0x4 miscutils/lib.a(watchdog.o)
 .rodata.ftpgetput_longopts
                0x0000000000449b68       0x33 networking/lib.a(ftpgetput.o)
 .rodata.TRext  0x0000000000449b9b        0xf networking/lib.a(interface.o)
 .rodata.ife_print_flags_strs.1
                0x0000000000449baa       0x6a networking/lib.a(interface.o)
 .rodata.ife_print_flags_mask.2
                0x0000000000449c14       0x1a networking/lib.a(interface.o)
 .rodata.tbl_verb
                0x0000000000449c2e       0x15 networking/lib.a(route.o)
 *fill*         0x0000000000449c43        0x1 00
 .rodata.flags_ipvx
                0x0000000000449c44       0x10 networking/lib.a(route.o)
 .rodata.tbl_ipvx
                0x0000000000449c54       0x68 networking/lib.a(route.o)
 .rodata.tbl_hash_net_host
                0x0000000000449cbc        0xf networking/lib.a(route.o)
 *fill*         0x0000000000449ccb        0x1 00
 .rodata.flagvals
                0x0000000000449ccc       0x14 networking/lib.a(route.o)
 .rodata.flagchars
                0x0000000000449ce0        0x6 networking/lib.a(route.o)
 .rodata.name_types
                0x0000000000449ce6       0x4c networking/lib.a(vconfig.o)
 .rodata.cmds   0x0000000000449d32       0x50 networking/lib.a(vconfig.o)
 .rodata.conf_file_name
                0x0000000000449d82       0x16 networking/lib.a(vconfig.o)
 .rodata.wget_longopts.0
                0x0000000000449d98       0x9b networking/lib.a(wget.o)
 .rodata.keywords.1
                0x0000000000449e33       0x2b networking/lib.a(wget.o)
 .rodata.udhcpc_longopts
                0x0000000000449e5e       0xef networking/udhcp/lib.a(dhcpc.o)
 *fill*         0x0000000000449f4d        0x3 00
 .rodata.len_of_option_as_string
                0x0000000000449f50       0x10 networking/udhcp/lib.a(dhcpc.o)
 .rodata.filter_instr.1
                0x0000000000449f60       0x48 networking/udhcp/lib.a(dhcpc.o)
 .rodata.dhcp_option_lengths
                0x0000000000449fa8        0xe networking/udhcp/lib.a(common.o)
                0x0000000000449fa8                dhcp_option_lengths
 .rodata.dhcp_option_strings
                0x0000000000449fb6       0xe5 networking/udhcp/lib.a(common.o)
                0x0000000000449fb6                dhcp_option_strings
 *fill*         0x000000000044a09b        0x1 00
 .rodata.dhcp_optflags
                0x000000000044a09c       0x44 networking/udhcp/lib.a(common.o)
                0x000000000044a09c                dhcp_optflags
 .rodata.MAC_BCAST_ADDR
                0x000000000044a0e0        0x6 networking/udhcp/lib.a(common.o)
                0x000000000044a0e0                MAC_BCAST_ADDR
 *fill*         0x000000000044a0e6        0x2 00
 .rodata.syntax_index_table
                0x000000000044a0e8      0x104 shell/lib.a(ash.o)
 .rodata.S_I_T  0x000000000044a1ec       0x20 shell/lib.a(ash.o)
 .rodata.dolatstr
                0x000000000044a20c        0x5 shell/lib.a(ash.o)
 .rodata.xxreadtoken_tokens
                0x000000000044a211        0xa shell/lib.a(ash.o)
 .rodata.xxreadtoken_chars
                0x000000000044a21b        0x7 shell/lib.a(ash.o)
 .rodata.timescmd_str
                0x000000000044a222        0x9 shell/lib.a(ash.o)
 *fill*         0x000000000044a22b        0x1 00
 .rodata.nodesize
                0x000000000044a22c       0x1c shell/lib.a(ash.o)
 .rodata.vstype.5
                0x000000000044a248       0x30 shell/lib.a(ash.o)
 .rodata.qchars.7
                0x000000000044a278        0x3 shell/lib.a(ash.o)
 .rodata.spclchars.4
                0x000000000044a27b        0xa shell/lib.a(ash.o)
 .rodata.metachars.6
                0x000000000044a285        0x4 shell/lib.a(ash.o)
 .rodata.C_escapes.3
                0x000000000044a289       0x12 shell/lib.a(ash.o)
 .rodata.types.2
                0x000000000044a29b        0x6 shell/lib.a(ash.o)
 .rodata.permuser.8
                0x000000000044a2a1        0x3 shell/lib.a(ash.o)
 .rodata.permmode.9
                0x000000000044a2a4        0x3 shell/lib.a(ash.o)
 *fill*         0x000000000044a2a7        0x1 00
 .rodata.permmask.10
                0x000000000044a2a8       0x12 shell/lib.a(ash.o)
 .rodata.op_tokens
                0x000000000044a2ba       0x8d shell/lib.a(math.o)
 .rodata.defifsvar
                0x000000000044a347        0x8 shell/lib.a(shell_common.o)
                0x000000000044a347                defifsvar
 *fill*         0x000000000044a34f        0x1 00
 .rodata.ulimit_opt_string
                0x000000000044a350       0x2c shell/lib.a(shell_common.o)
 .rodata.init_sem
                0x000000000044a37c       0x14 sysklogd/lib.a(logread.o)
 .rodata.mount_options
                0x000000000044a390       0xa0 util-linux/lib.a(mount.o)
 .rodata.mount_option_str
                0x000000000044a430      0x140 util-linux/lib.a(mount.o)
 .rodata.filesystems.0
                0x000000000044a570       0x24 util-linux/lib.a(mount.o)
 .rodata.tar_longopts
                0x000000000044a594       0xf4 archival/lib.a(tar.o)
 .rodata.prefilled.0
                0x000000000044a688       0x30 archival/lib.a(tar.o)
 .rodata.mask_bits
                0x000000000044a6b8       0x22 archival/libarchive/lib.a(decompress_unzip.o)
 .rodata.border
                0x000000000044a6da       0x13 archival/libarchive/lib.a(decompress_unzip.o)
 .rodata.cpdext
                0x000000000044a6ed       0x1e archival/libarchive/lib.a(decompress_unzip.o)
 *fill*         0x000000000044a70b        0x1 00
 .rodata.cpdist
                0x000000000044a70c       0x3c archival/libarchive/lib.a(decompress_unzip.o)
 .rodata.cplext
                0x000000000044a748       0x1f archival/libarchive/lib.a(decompress_unzip.o)
 *fill*         0x000000000044a767        0x1 00
 .rodata.cplens
                0x000000000044a768       0x3e archival/libarchive/lib.a(decompress_unzip.o)
 .rodata.date_longopts
                0x000000000044a7a6       0x45 coreutils/lib.a(date.o)
 .rodata.isoformats.0
                0x000000000044a7eb       0x1c coreutils/lib.a(date.o)
 *fill*         0x000000000044a807        0x1 00
 .rodata.opt_flags
                0x000000000044a808       0x48 coreutils/lib.a(ls.o)
 .rodata.ls_options
                0x000000000044a850       0x17 coreutils/lib.a(ls.o)
 *fill*         0x000000000044a867        0x1 00
 .rodata.modes_cubp
                0x000000000044a868        0xc coreutils/lib.a(mknod.o)
 .rodata.modes_chars
                0x000000000044a874        0x8 coreutils/lib.a(mknod.o)
 .rodata.fmt.0  0x000000000044a87c       0x2d coreutils/lib.a(mv.o)
 .rodata.format_chars.0
                0x000000000044a8a9        0xe coreutils/lib.a(printf.o)
 *fill*         0x000000000044a8b7        0x1 00
 .rodata.sfx    0x000000000044a8b8       0x28 coreutils/lib.a(sleep.o)
 .rodata.ops_table
                0x000000000044a8e0       0x50 coreutils/lib.a(test.o)
 .rodata.ops_texts
                0x000000000044a930       0x7c coreutils/lib.a(test.o)
 .rodata.no_op.0
                0x000000000044a9ac        0x4 coreutils/lib.a(test.o)
 .rodata.utsname_offset
                0x000000000044a9b0       0x10 coreutils/lib.a(uname.o)
 .rodata.options
                0x000000000044a9c0        0xa coreutils/lib.a(uname.o)
 .rodata.uname_longopts.0
                0x000000000044a9ca       0x89 coreutils/lib.a(uname.o)
 *fill*         0x000000000044aa53        0x1 00
 .rodata.magic.0
                0x000000000044aa54        0xc init/lib.a(halt.o)
 .rodata.signals.1
                0x000000000044aa60        0x4 init/lib.a(halt.o)
 .rodata.press_enter.1
                0x000000000044aa64       0x2f init/lib.a(init.o)
 .rodata.actions.0
                0x000000000044aa93       0x40 init/lib.a(init.o)
 *fill*         0x000000000044aad3        0x1 00
 .rodata.bb_null_long_options
                0x000000000044aad4       0x10 libbb/lib.a(getopt32.o)
 .rodata.unit_chars.0
                0x000000000044aae4        0x9 libbb/lib.a(human_readable.o)
 .rodata.null_str
                0x000000000044aaed        0x1 libbb/lib.a(lineedit.o)
 .rodata.forbid
                0x000000000044aaee       0x96 libbb/lib.a(login.o)
 .rodata.mode_chars
                0x000000000044ab84        0x8 libbb/lib.a(mode_string.o)
 .rodata.type_chars
                0x000000000044ab8c       0x10 libbb/lib.a(mode_string.o)
 .rodata.who_mask.0
                0x000000000044ab9c       0x10 libbb/lib.a(parse_mode.o)
 .rodata.perm_mask.1
                0x000000000044abac       0x18 libbb/lib.a(parse_mode.o)
 .rodata.who_chars.2
                0x000000000044abc4        0x5 libbb/lib.a(parse_mode.o)
 .rodata.perm_chars.3
                0x000000000044abc9        0x7 libbb/lib.a(parse_mode.o)
 .rodata.charmap.0
                0x000000000044abd0       0x14 libbb/lib.a(process_escape_sequence.o)
 .rodata.esccmds.0
                0x000000000044abe4       0x51 libbb/lib.a(read_key.o)
 *fill*         0x000000000044ac35        0x3 00
 .rodata.signals
                0x000000000044ac38       0xe0 libbb/lib.a(u_signal_names.o)
 .rodata.bb_uuenc_tbl_base64
                0x000000000044ad18       0x43 libbb/lib.a(uuencode.o)
                0x000000000044ad18                bb_uuenc_tbl_base64

.rodata1
 *(SORT(.rodata1))

.sdata2
 *(SORT(.sdata2) .sdata2.* .gnu.linkonce.s2.*)

.sbss2
 *(SORT(.sbss2) .sbss2.* .gnu.linkonce.sb2.*)

.eh_frame_hdr   0x000000000044ad5c        0x0
 *(SORT(.eh_frame_hdr))
 .eh_frame_hdr  0x0000000000000000        0x0 /opt/workspace/rtl8198/rtl819x/toolchain/rsdk-1.3.6-5281-EB-2.6.30-0.9.30/lib/crt1.o

.eh_frame       0x000000000044ad5c        0x4
 *(SORT(.eh_frame))
 .eh_frame      0x000000000044ad5c        0x0 /opt/workspace/rtl8198/rtl819x/toolchain/rsdk-1.3.6-5281-EB-2.6.30-0.9.30/lib/crtbeginS.o
 .eh_frame      0x000000000044ad5c        0x4 /opt/workspace/rtl8198/rtl819x/toolchain/rsdk-1.3.6-5281-EB-2.6.30-0.9.30/lib/crtendS.o

.gcc_except_table
 *(SORT(.gcc_except_table) .gcc_except_table.*)
                0x000000000044ad60                . = (ALIGN (0x40000) - ((0x40000 - .) & 0x3ffff))
                0x000000000048b000                . = (0x40000 DATA_SEGMENT_ALIGN 0x1000)

.eh_frame
 *(SORT(.eh_frame))

.gcc_except_table
 *(SORT(.gcc_except_table) .gcc_except_table.*)

.tdata
 *(SORT(.tdata) .tdata.* .gnu.linkonce.td.*)

.tbss
 *(SORT(.tbss) .tbss.* .gnu.linkonce.tb.*)
 *(SORT(.tcommon))

.preinit_array  0x000000000048b000        0x0
                0x000000000048b000                PROVIDE (__preinit_array_start, .)
 *(SORT(.preinit_array))
                0x000000000048b000                PROVIDE (__preinit_array_end, .)

.init_array     0x000000000048b000        0x0
                0x000000000048b000                PROVIDE (__init_array_start, .)
 *(SORT(.init_array.*))
 *(SORT(.init_array))
                0x000000000048b000                PROVIDE (__init_array_end, .)

.fini_array     0x000000000048b000        0x0
                0x000000000048b000                PROVIDE (__fini_array_start, .)
 *(SORT(.fini_array))
 *(SORT(.fini_array.*))
                0x000000000048b000                PROVIDE (__fini_array_end, .)

.ctors          0x000000000048b000        0x8
 *crtbegin*.o(SORT(.ctors))
 *(SORT(EXCLUDE_FILE(*crtend*.o) .ctors))
 .ctors         0x000000000048b000        0x4 /opt/workspace/rtl8198/rtl819x/toolchain/rsdk-1.3.6-5281-EB-2.6.30-0.9.30/lib/crtbeginS.o
 *(SORT(.ctors.*))
 *(SORT(.ctors))
 .ctors         0x000000000048b004        0x4 /opt/workspace/rtl8198/rtl819x/toolchain/rsdk-1.3.6-5281-EB-2.6.30-0.9.30/lib/crtendS.o

.dtors          0x000000000048b008        0x8
 *crtbegin*.o(SORT(.dtors))
 *(SORT(EXCLUDE_FILE(*crtend*.o) .dtors))
 .dtors         0x000000000048b008        0x4 /opt/workspace/rtl8198/rtl819x/toolchain/rsdk-1.3.6-5281-EB-2.6.30-0.9.30/lib/crtbeginS.o
 *(SORT(.dtors.*))
 *(SORT(.dtors))
 .dtors         0x000000000048b00c        0x4 /opt/workspace/rtl8198/rtl819x/toolchain/rsdk-1.3.6-5281-EB-2.6.30-0.9.30/lib/crtendS.o

.jcr            0x000000000048b010        0x4
 *(SORT(.jcr))
 .jcr           0x000000000048b010        0x0 /opt/workspace/rtl8198/rtl819x/toolchain/rsdk-1.3.6-5281-EB-2.6.30-0.9.30/lib/crtbeginS.o
 .jcr           0x000000000048b010        0x4 /opt/workspace/rtl8198/rtl819x/toolchain/rsdk-1.3.6-5281-EB-2.6.30-0.9.30/lib/crtendS.o

.data.rel.ro    0x000000000048b014        0x4
 *(SORT(.data.rel.ro.local*) .gnu.linkonce.d.rel.ro.local.*)
 *(SORT(.data.rel.ro*) .gnu.linkonce.d.rel.ro.*)
 .data.rel.ro   0x000000000048b014        0x4 archival/lib.a(tar.o)
                0x000000000048b018                . = (. DATA_SEGMENT_RELRO_END 0x0)

.data           0x000000000048b018      0x754
                0x000000000048b018                _fdata = .
 *(SORT(.data) .data.* .gnu.linkonce.d.*)
 .data.rel      0x000000000048b018        0x4 /opt/workspace/rtl8198/rtl819x/toolchain/rsdk-1.3.6-5281-EB-2.6.30-0.9.30/lib/crtbeginS.o
                0x000000000048b018                __dso_handle
 .data.rel.local
                0x000000000048b01c        0x4 /opt/workspace/rtl8198/rtl819x/toolchain/rsdk-1.3.6-5281-EB-2.6.30-0.9.30/lib/crtbeginS.o
 .data.applet_main
                0x000000000048b020       0xd8 libbb/lib.a(appletlib.o)
                0x000000000048b020                applet_main
 .data.xfunc_error_retval
                0x000000000048b0f8        0x1 libbb/lib.a(default_error_retval.o)
                0x000000000048b0f8                xfunc_error_retval
 *fill*         0x000000000048b0f9        0x3 00
 .data.msg_eol  0x000000000048b0fc        0x4 libbb/lib.a(verror_msg.o)
                0x000000000048b0fc                msg_eol
 .data.logmode  0x000000000048b100        0x1 libbb/lib.a(verror_msg.o)
                0x000000000048b100                logmode
 *fill*         0x000000000048b101        0x3 00
 .data.g_filename
                0x000000000048b104        0x4 modutils/lib.a(insmod.o)
 .data.Arg1Opt  0x000000000048b108       0x48 networking/lib.a(ifconfig.o)
 .data.OptArray
                0x000000000048b150       0x88 networking/lib.a(ifconfig.o)
 .data.ss_fmt   0x000000000048b1d8        0xc networking/lib.a(interface.o)
 .data.if_port_text
                0x000000000048b1e4       0x20 networking/lib.a(interface.o)
 .data.aftypes  0x000000000048b204        0xc networking/lib.a(interface.o)
 .data.unspec_aftype
                0x000000000048b210       0x2c networking/lib.a(interface.o)
 .data.inet_aftype
                0x000000000048b23c       0x2c networking/lib.a(interface.o)
 .data.hwtypes  0x000000000048b268       0x14 networking/lib.a(interface.o)
 .data.unspec_hwtype
                0x000000000048b27c       0x20 networking/lib.a(interface.o)
 .data.ppp_hwtype
                0x000000000048b29c       0x20 networking/lib.a(interface.o)
 .data.ether_hwtype
                0x000000000048b2bc       0x20 networking/lib.a(interface.o)
 .data.loop_hwtype
                0x000000000048b2dc       0x20 networking/lib.a(interface.o)
 .data.sockfd   0x000000000048b2fc        0x4 networking/udhcp/lib.a(dhcpc.o)
 .data.msgs.0   0x000000000048b300        0x4 networking/udhcp/lib.a(dhcpc.o)
 .data.filter_prog.2
                0x000000000048b304        0x8 networking/udhcp/lib.a(dhcpc.o)
 .data.varinit_data
                0x000000000048b30c       0x48 shell/lib.a(ash.o)
 .data.g_parsefile
                0x000000000048b354        0x4 shell/lib.a(ash.o)
 .data.builtinloc
                0x000000000048b358        0x4 shell/lib.a(ash.o)
 .data.optletters_optnames
                0x000000000048b35c       0x3c shell/lib.a(ash.o)
 .data.ttyfd    0x000000000048b398        0x4 shell/lib.a(ash.o)
 .data.tokname_array
                0x000000000048b39c       0x74 shell/lib.a(ash.o)
 .data.builtintab
                0x000000000048b410      0x158 shell/lib.a(ash.o)
 .data.null_bltin.11
                0x000000000048b568        0x8 shell/lib.a(ash.o)
 .data.limits_tbl
                0x000000000048b570       0x68 shell/lib.a(shell_common.o)
 .data.facilitynames
                0x000000000048b5d8       0xb8 sysklogd/lib.a(syslogd_and_logger.o)
                0x000000000048b5d8                facilitynames
 .data.prioritynames
                0x000000000048b690       0x68 sysklogd/lib.a(syslogd_and_logger.o)
                0x000000000048b690                prioritynames
 .data.init_data
                0x000000000048b6f8       0x40 sysklogd/lib.a(syslogd_and_logger.o)
 .data.tar_var  0x000000000048b738       0x20 archival/libarchive/lib.a(data_extract_to_command.o)
 .data.warned.0
                0x000000000048b758        0x1 archival/libarchive/lib.a(get_header_tar.o)
 *fill*         0x000000000048b759        0x3 00
 .data.init_action_list
                0x000000000048b75c        0x4 init/lib.a(init.o)
 .data.bb_argv_dash
                0x000000000048b760        0x8 libbb/lib.a(getopt32.o)
                0x000000000048b760                bb_argv_dash
 .data.cache.0  0x000000000048b768        0x4 libbb/lib.a(inet_common.o)
 *(SORT(.gnu.linkonce.d.*personality*))

.rld_map        0x000000000048b76c        0x4
 .rld_map       0x000000000048b76c        0x4 /opt/workspace/rtl8198/rtl819x/toolchain/rsdk-1.3.6-5281-EB-2.6.30-0.9.30/lib/crt1.o
                0x000000000048b76c                __RLD_MAP

.data1
 *(SORT(.data1))
                0x000000000048b770                . = .
                0x0000000000493760                _gp = (ALIGN (0x10) + 0x7ff0)

.got            0x000000000048b770      0xbc0
 *(SORT(.got.plt))
 *(SORT(.got))
 .got           0x000000000048b770      0xbc0 /opt/workspace/rtl8198/rtl819x/toolchain/rsdk-1.3.6-5281-EB-2.6.30-0.9.30/lib/crt1.o
                0x000000000048b770                _GLOBAL_OFFSET_TABLE_

.sdata
 *(SORT(.sdata) .sdata.* .gnu.linkonce.s.*)

.lit8
 *(SORT(.lit8))

.lit4
 *(SORT(.lit4))
                0x000000000048c330                _edata = .
                0x000000000048c330                PROVIDE (edata, .)
                0x000000000048c330                __bss_start = .
                0x000000000048c330                _fbss = .

.sbss
 *(SORT(.dynsbss))
 *(SORT(.sbss) .sbss.* .gnu.linkonce.sb.*)
 *(SORT(.scommon))

.bss            0x000000000048c330     0x12b8
 *(SORT(.dynbss))
 *(SORT(.bss) .bss.* .gnu.linkonce.b.*)
 .bss           0x000000000048c330       0x20 /opt/workspace/rtl8198/rtl819x/toolchain/rsdk-1.3.6-5281-EB-2.6.30-0.9.30/lib/crtbeginS.o
 .bss.applet_name
                0x000000000048c350        0x4 libbb/lib.a(appletlib.o)
                0x000000000048c350                applet_name
 .bss.ruid      0x000000000048c354        0x4 libbb/lib.a(appletlib.o)
 .bss.bb_common_bufsiz1
                0x000000000048c358     0x1008 libbb/lib.a(messages.o)
                0x000000000048c358                bb_common_bufsiz1
 .bss.ptr_to_globals
                0x000000000048d360        0x4 libbb/lib.a(ptr_to_globals.o)
                0x000000000048d360                ptr_to_globals
 .bss.bb_errno  0x000000000048d364        0x4 libbb/lib.a(ptr_to_globals.o)
                0x000000000048d364                bb_errno
 .bss.die_sleep
                0x000000000048d368        0x4 libbb/lib.a(xfunc_die.o)
                0x000000000048d368                die_sleep
 *fill*         0x000000000048d36c        0x4 00
 .bss.die_jmp   0x000000000048d370       0xf0 libbb/lib.a(xfunc_die.o)
                0x000000000048d370                die_jmp
 .bss.local_buf
                0x000000000048d460        0xc libbb/lib.a(xfuncs.o)
 .bss.buff.3    0x000000000048d46c        0x4 networking/lib.a(interface.o)
 .bss.buff.4    0x000000000048d470        0x4 networking/lib.a(interface.o)
 .bss.proc_read.0
                0x000000000048d474        0x1 networking/lib.a(interface.o)
 *fill*         0x000000000048d475        0x3 00
 .bss.buff.5    0x000000000048d478        0x4 networking/lib.a(interface.o)
 .bss.interface_opt_a
                0x000000000048d47c        0x1 networking/lib.a(interface.o)
                0x000000000048d47c                interface_opt_a
 *fill*         0x000000000048d47d        0x3 00
 .bss.int_list  0x000000000048d480        0x4 networking/lib.a(interface.o)
 .bss.int_last  0x000000000048d484        0x4 networking/lib.a(interface.o)
 .bss.listen_mode
                0x000000000048d488        0x1 networking/udhcp/lib.a(dhcpc.o)
 .bss.state     0x000000000048d489        0x1 networking/udhcp/lib.a(dhcpc.o)
 *fill*         0x000000000048d48a        0x2 00
 .bss.signal_pipe
                0x000000000048d48c        0x8 networking/udhcp/lib.a(signalpipe.o)
 .bss.is_interactive.0
                0x000000000048d494        0x1 shell/lib.a(ash.o)
 .bss.did_banner.1
                0x000000000048d495        0x1 shell/lib.a(ash.o)
 *fill*         0x000000000048d496        0x2 00
 .bss.basepf    0x000000000048d498       0x34 shell/lib.a(ash.o)
 .bss.startlinno
                0x000000000048d4cc        0x4 shell/lib.a(ash.o)
 .bss.commandname
                0x000000000048d4d0        0x4 shell/lib.a(ash.o)
 .bss.cmdenviron
                0x000000000048d4d4        0x4 shell/lib.a(ash.o)
 .bss.exitstatus
                0x000000000048d4d8        0x1 shell/lib.a(ash.o)
 *fill*         0x000000000048d4d9        0x3 00
 .bss.argptr    0x000000000048d4dc        0x4 shell/lib.a(ash.o)
 .bss.optionarg
                0x000000000048d4e0        0x4 shell/lib.a(ash.o)
 .bss.optptr    0x000000000048d4e4        0x4 shell/lib.a(ash.o)
 .bss.pathopt   0x000000000048d4e8        0x4 shell/lib.a(ash.o)
 .bss.doprompt  0x000000000048d4ec        0x1 shell/lib.a(ash.o)
 .bss.needprompt
                0x000000000048d4ed        0x1 shell/lib.a(ash.o)
 *fill*         0x000000000048d4ee        0x2 00
 .bss.line_input_state
                0x000000000048d4f0        0x4 shell/lib.a(ash.o)
 .bss.cmdedit_prompt
                0x000000000048d4f4        0x4 shell/lib.a(ash.o)
 .bss.atab      0x000000000048d4f8        0x4 shell/lib.a(ash.o)
 .bss.doing_jobctl
                0x000000000048d4fc        0x1 shell/lib.a(ash.o)
 *fill*         0x000000000048d4fd        0x3 00
 .bss.initialpgrp
                0x000000000048d500        0x4 shell/lib.a(ash.o)
 .bss.jobtab    0x000000000048d504        0x4 shell/lib.a(ash.o)
 .bss.njobs     0x000000000048d508        0x4 shell/lib.a(ash.o)
 .bss.curjob    0x000000000048d50c        0x4 shell/lib.a(ash.o)
 .bss.jobless   0x000000000048d510        0x4 shell/lib.a(ash.o)
 .bss.cmdnextc  0x000000000048d514        0x4 shell/lib.a(ash.o)
 .bss.expdest   0x000000000048d518        0x4 shell/lib.a(ash.o)
 .bss.argbackq  0x000000000048d51c        0x4 shell/lib.a(ash.o)
 .bss.ifsfirst  0x000000000048d520       0x10 shell/lib.a(ash.o)
 .bss.ifslastp  0x000000000048d530        0x4 shell/lib.a(ash.o)
 .bss.exparg    0x000000000048d534        0x8 shell/lib.a(ash.o)
 .bss.back_exitstatus
                0x000000000048d53c        0x1 shell/lib.a(ash.o)
 *fill*         0x000000000048d53d        0x3 00
 .bss.cmdtable  0x000000000048d540        0x4 shell/lib.a(ash.o)
 .bss.lastcmdentry
                0x000000000048d544        0x4 shell/lib.a(ash.o)
 .bss.funcblocksize
                0x000000000048d548        0x4 shell/lib.a(ash.o)
 .bss.funcstringsize
                0x000000000048d54c        0x4 shell/lib.a(ash.o)
 .bss.funcblock
                0x000000000048d550        0x4 shell/lib.a(ash.o)
 .bss.funcstring
                0x000000000048d554        0x4 shell/lib.a(ash.o)
 .bss.evalskip  0x000000000048d558        0x1 shell/lib.a(ash.o)
 *fill*         0x000000000048d559        0x3 00
 .bss.skipcount
                0x000000000048d55c        0x4 shell/lib.a(ash.o)
 .bss.funcnest  0x000000000048d560        0x4 shell/lib.a(ash.o)
 .bss.loopnest  0x000000000048d564        0x4 shell/lib.a(ash.o)
 .bss.localvars
                0x000000000048d568        0x4 shell/lib.a(ash.o)
 .bss.checkkwd  0x000000000048d56c        0x1 shell/lib.a(ash.o)
 .bss.tokpushback
                0x000000000048d56d        0x1 shell/lib.a(ash.o)
 .bss.parsebackquote
                0x000000000048d56e        0x1 shell/lib.a(ash.o)
 .bss.quoteflag
                0x000000000048d56f        0x1 shell/lib.a(ash.o)
 .bss.lasttoken
                0x000000000048d570        0x1 shell/lib.a(ash.o)
 *fill*         0x000000000048d571        0x3 00
 .bss.heredoclist
                0x000000000048d574        0x4 shell/lib.a(ash.o)
 .bss.wordtext  0x000000000048d578        0x4 shell/lib.a(ash.o)
 .bss.backquotelist
                0x000000000048d57c        0x4 shell/lib.a(ash.o)
 .bss.redirnode
                0x000000000048d580        0x4 shell/lib.a(ash.o)
 .bss.heredoc   0x000000000048d584        0x4 shell/lib.a(ash.o)
 .bss.ash_ptr_to_globals_misc
                0x000000000048d588        0x4 shell/lib.a(ash_ptr_hack.o)
                0x000000000048d588                ash_ptr_to_globals_misc
 .bss.ash_ptr_to_globals_memstack
                0x000000000048d58c        0x4 shell/lib.a(ash_ptr_hack.o)
                0x000000000048d58c                ash_ptr_to_globals_memstack
 .bss.ash_ptr_to_globals_var
                0x000000000048d590        0x4 shell/lib.a(ash_ptr_hack.o)
                0x000000000048d590                ash_ptr_to_globals_var
 .bss.test_ptr_to_statics
                0x000000000048d594        0x4 coreutils/lib.a(test_ptr_hack.o)
                0x000000000048d594                test_ptr_to_statics
 .bss.opt_complementary
                0x000000000048d598        0x4 libbb/lib.a(getopt32.o)
                0x000000000048d598                opt_complementary
 .bss.applet_long_options
                0x000000000048d59c        0x4 libbb/lib.a(getopt32.o)
                0x000000000048d59c                applet_long_options
 .bss.option_mask32
                0x000000000048d5a0        0x4 libbb/lib.a(getopt32.o)
                0x000000000048d5a0                option_mask32
 .bss.str.1     0x000000000048d5a4        0x4 libbb/lib.a(human_readable.o)
 .bss.ino_dev_hashtable
                0x000000000048d5a8        0x4 libbb/lib.a(inode_hash.o)
 .bss.lineedit_ptr_to_statics
                0x000000000048d5ac        0x4 libbb/lib.a(lineedit_ptr_hack.o)
                0x000000000048d5ac                lineedit_ptr_to_statics
 .bss.buf.0     0x000000000048d5b0        0xc libbb/lib.a(mode_string.o)
 .bss.wrote_pidfile
                0x000000000048d5bc        0x1 libbb/lib.a(pidfile.o)
                0x000000000048d5bc                wrote_pidfile
 *fill*         0x000000000048d5bd        0x3 00
 .bss.saved.0   0x000000000048d5c0       0x10 libbb/lib.a(printable_string.o)
 .bss.cur_saved.1
                0x000000000048d5d0        0x4 libbb/lib.a(printable_string.o)
 .bss.username  0x000000000048d5d4        0x8 libbb/lib.a(procps.o)
 .bss.groupname
                0x000000000048d5dc        0x8 libbb/lib.a(procps.o)
 .bss.bb_got_signal
                0x000000000048d5e4        0x1 libbb/lib.a(signals.o)
                0x000000000048d5e4                bb_got_signal
 *(SORT(COMMON))
                0x000000000048d5e8                . = ALIGN ((. != 0x0)?0x4:0x1)
 *fill*         0x000000000048d5e5        0x3 00
                0x000000000048d5e8                . = ALIGN (0x4)
                0x000000000048d5e8                . = ALIGN (0x4)
                0x000000000048d5e8                _end = .
                0x000000000048d5e8                PROVIDE (end, .)
                0x000000000048d5e8                . = DATA_SEGMENT_END (.)

.stab
 *(SORT(.stab))

.stabstr
 *(SORT(.stabstr))

.stab.excl
 *(SORT(.stab.excl))

.stab.exclstr
 *(SORT(.stab.exclstr))

.stab.index
 *(SORT(.stab.index))

.stab.indexstr
 *(SORT(.stab.indexstr))

.comment        0x0000000000000000      0xf84
 *(SORT(.comment))
 .comment       0x0000000000000000       0x12 /opt/workspace/rtl8198/rtl819x/toolchain/rsdk-1.3.6-5281-EB-2.6.30-0.9.30/lib/crti.o
 .comment       0x0000000000000012       0x18 /opt/workspace/rtl8198/rtl819x/toolchain/rsdk-1.3.6-5281-EB-2.6.30-0.9.30/lib/crtbeginS.o
 .comment       0x000000000000002a       0x18 applets/built-in.o
 .comment       0x0000000000000042       0x18 libbb/lib.a(appletlib.o)
 .comment       0x000000000000005a       0x18 libbb/lib.a(default_error_retval.o)
 .comment       0x0000000000000072       0x18 libbb/lib.a(get_last_path_component.o)
 .comment       0x000000000000008a       0x18 libbb/lib.a(last_char_is.o)
 .comment       0x00000000000000a2       0x18 libbb/lib.a(messages.o)
 .comment       0x00000000000000ba       0x18 libbb/lib.a(ptr_to_globals.o)
 .comment       0x00000000000000d2       0x18 libbb/lib.a(verror_msg.o)
 .comment       0x00000000000000ea       0x18 libbb/lib.a(xfunc_die.o)
 .comment       0x0000000000000102       0x18 libbb/lib.a(xfuncs.o)
 .comment       0x000000000000011a       0x18 libbb/lib.a(xfuncs_printf.o)
 .comment       0x0000000000000132       0x18 libbb/lib.a(copyfd.o)
 .comment       0x000000000000014a       0x18 libbb/lib.a(full_write.o)
 .comment       0x0000000000000162       0x18 libbb/lib.a(perror_msg.o)
 .comment       0x000000000000017a       0x18 libbb/lib.a(read.o)
 .comment       0x0000000000000192       0x18 libbb/lib.a(safe_write.o)
 .comment       0x00000000000001aa       0x18 libbb/lib.a(time.o)
 .comment       0x00000000000001c2       0x18 libbb/lib.a(bb_strtonum.o)
 .comment       0x00000000000001da       0x18 miscutils/lib.a(flash_eraseall.o)
 .comment       0x00000000000001f2       0x18 miscutils/lib.a(flash_lock_unlock.o)
 .comment       0x000000000000020a       0x18 miscutils/lib.a(watchdog.o)
 .comment       0x0000000000000222       0x18 modutils/lib.a(insmod.o)
 .comment       0x000000000000023a       0x18 modutils/lib.a(lsmod.o)
 .comment       0x0000000000000252       0x18 modutils/lib.a(modutils.o)
 .comment       0x000000000000026a       0x18 modutils/lib.a(rmmod.o)
 .comment       0x0000000000000282       0x18 networking/lib.a(ftpgetput.o)
 .comment       0x000000000000029a       0x18 networking/lib.a(ifconfig.o)
 .comment       0x00000000000002b2       0x18 networking/lib.a(interface.o)
 .comment       0x00000000000002ca       0x18 networking/lib.a(ping.o)
 .comment       0x00000000000002e2       0x18 networking/lib.a(route.o)
 .comment       0x00000000000002fa       0x18 networking/lib.a(vconfig.o)
 .comment       0x0000000000000312       0x18 networking/lib.a(wget.o)
 .comment       0x000000000000032a       0x18 networking/udhcp/lib.a(dhcpc.o)
 .comment       0x0000000000000342       0x18 networking/udhcp/lib.a(domain_codec.o)
 .comment       0x000000000000035a       0x18 networking/udhcp/lib.a(packet.o)
 .comment       0x0000000000000372       0x18 networking/udhcp/lib.a(signalpipe.o)
 .comment       0x000000000000038a       0x18 networking/udhcp/lib.a(socket.o)
 .comment       0x00000000000003a2       0x18 networking/udhcp/lib.a(common.o)
 .comment       0x00000000000003ba       0x18 procps/lib.a(kill.o)
 .comment       0x00000000000003d2       0x18 procps/lib.a(pidof.o)
 .comment       0x00000000000003ea       0x18 procps/lib.a(ps.o)
 .comment       0x0000000000000402       0x18 procps/lib.a(uptime.o)
 .comment       0x000000000000041a       0x18 shell/lib.a(ash.o)
 .comment       0x0000000000000432       0x18 shell/lib.a(ash_ptr_hack.o)
 .comment       0x000000000000044a       0x18 shell/lib.a(math.o)
 .comment       0x0000000000000462       0x18 shell/lib.a(shell_common.o)
 .comment       0x000000000000047a       0x18 sysklogd/lib.a(klogd.o)
 .comment       0x0000000000000492       0x18 sysklogd/lib.a(logread.o)
 .comment       0x00000000000004aa       0x18 sysklogd/lib.a(syslogd_and_logger.o)
 .comment       0x00000000000004c2       0x18 util-linux/lib.a(dmesg.o)
 .comment       0x00000000000004da       0x18 util-linux/lib.a(hwclock.o)
 .comment       0x00000000000004f2       0x18 util-linux/lib.a(mount.o)
 .comment       0x000000000000050a       0x18 util-linux/lib.a(switch_root.o)
 .comment       0x0000000000000522       0x18 util-linux/lib.a(umount.o)
 .comment       0x000000000000053a       0x18 archival/lib.a(tar.o)
 .comment       0x0000000000000552       0x18 archival/libarchive/lib.a(data_extract_all.o)
 .comment       0x000000000000056a       0x18 archival/libarchive/lib.a(data_extract_to_command.o)
 .comment       0x0000000000000582       0x18 archival/libarchive/lib.a(data_extract_to_stdout.o)
 .comment       0x000000000000059a       0x18 archival/libarchive/lib.a(data_skip.o)
 .comment       0x00000000000005b2       0x18 archival/libarchive/lib.a(decompress_bunzip2.o)
 .comment       0x00000000000005ca       0x18 archival/libarchive/lib.a(filter_accept_reject_list.o)
 .comment       0x00000000000005e2       0x18 archival/libarchive/lib.a(find_list_entry.o)
 .comment       0x00000000000005fa       0x18 archival/libarchive/lib.a(get_header_tar.o)
 .comment       0x0000000000000612       0x18 archival/libarchive/lib.a(get_header_tar_gz.o)
 .comment       0x000000000000062a       0x18 archival/libarchive/lib.a(header_list.o)
 .comment       0x0000000000000642       0x18 archival/libarchive/lib.a(header_verbose_list.o)
 .comment       0x000000000000065a       0x18 archival/libarchive/lib.a(init_handle.o)
 .comment       0x0000000000000672       0x18 archival/libarchive/lib.a(open_transformer.o)
 .comment       0x000000000000068a       0x18 archival/libarchive/lib.a(seek_by_jump.o)
 .comment       0x00000000000006a2       0x18 archival/libarchive/lib.a(seek_by_read.o)
 .comment       0x00000000000006ba       0x18 archival/libarchive/lib.a(data_align.o)
 .comment       0x00000000000006d2       0x18 archival/libarchive/lib.a(decompress_unzip.o)
 .comment       0x00000000000006ea       0x18 archival/libarchive/lib.a(filter_accept_all.o)
 .comment       0x0000000000000702       0x18 archival/libarchive/lib.a(header_skip.o)
 .comment       0x000000000000071a       0x18 console-tools/lib.a(clear.o)
 .comment       0x0000000000000732       0x18 coreutils/lib.a(basename.o)
 .comment       0x000000000000074a       0x18 coreutils/lib.a(cat.o)
 .comment       0x0000000000000762       0x18 coreutils/lib.a(chmod.o)
 .comment       0x000000000000077a       0x18 coreutils/lib.a(cp.o)
 .comment       0x0000000000000792       0x18 coreutils/lib.a(date.o)
 .comment       0x00000000000007aa       0x18 coreutils/lib.a(df.o)
 .comment       0x00000000000007c2       0x18 coreutils/lib.a(echo.o)
 .comment       0x00000000000007da       0x18 coreutils/lib.a(ln.o)
 .comment       0x00000000000007f2       0x18 coreutils/lib.a(ls.o)
 .comment       0x000000000000080a       0x18 coreutils/lib.a(mkdir.o)
 .comment       0x0000000000000822       0x18 coreutils/lib.a(mknod.o)
 .comment       0x000000000000083a       0x18 coreutils/lib.a(mv.o)
 .comment       0x0000000000000852       0x18 coreutils/lib.a(printf.o)
 .comment       0x000000000000086a       0x18 coreutils/lib.a(pwd.o)
 .comment       0x0000000000000882       0x18 coreutils/lib.a(rm.o)
 .comment       0x000000000000089a       0x18 coreutils/lib.a(sleep.o)
 .comment       0x00000000000008b2       0x18 coreutils/lib.a(sync.o)
 .comment       0x00000000000008ca       0x18 coreutils/lib.a(test.o)
 .comment       0x00000000000008e2       0x18 coreutils/lib.a(test_ptr_hack.o)
 .comment       0x00000000000008fa       0x18 coreutils/lib.a(touch.o)
 .comment       0x0000000000000912       0x18 coreutils/lib.a(uname.o)
 .comment       0x000000000000092a       0x18 coreutils/libcoreutils/lib.a(cp_mv_stat.o)
 .comment       0x0000000000000942       0x18 coreutils/libcoreutils/lib.a(getopt_mk_fifo_nod.o)
 .comment       0x000000000000095a       0x18 init/lib.a(halt.o)
 .comment       0x0000000000000972       0x18 init/lib.a(init.o)
 .comment       0x000000000000098a       0x18 libbb/lib.a(ask_confirmation.o)
 .comment       0x00000000000009a2       0x18 libbb/lib.a(bb_pwd.o)
 .comment       0x00000000000009ba       0x18 libbb/lib.a(compare_string_array.o)
 .comment       0x00000000000009d2       0x18 libbb/lib.a(concat_path_file.o)
 .comment       0x00000000000009ea       0x18 libbb/lib.a(copy_file.o)
 .comment       0x0000000000000a02       0x18 libbb/lib.a(crc32.o)
 .comment       0x0000000000000a1a       0x18 libbb/lib.a(create_icmp_socket.o)
 .comment       0x0000000000000a32       0x18 libbb/lib.a(device_open.o)
 .comment       0x0000000000000a4a       0x18 libbb/lib.a(execable.o)
 .comment       0x0000000000000a62       0x18 libbb/lib.a(fflush_stdout_and_exit.o)
 .comment       0x0000000000000a7a       0x18 libbb/lib.a(find_mount_point.o)
 .comment       0x0000000000000a92       0x18 libbb/lib.a(find_pid_by_name.o)
 .comment       0x0000000000000aaa       0x18 libbb/lib.a(get_line_from_file.o)
 .comment       0x0000000000000ac2       0x18 libbb/lib.a(get_shell_name.o)
 .comment       0x0000000000000ada       0x18 libbb/lib.a(getopt32.o)
 .comment       0x0000000000000af2       0x18 libbb/lib.a(human_readable.o)
 .comment       0x0000000000000b0a       0x18 libbb/lib.a(inet_common.o)
 .comment       0x0000000000000b22       0x18 libbb/lib.a(info_msg.o)
 .comment       0x0000000000000b3a       0x18 libbb/lib.a(inode_hash.o)
 .comment       0x0000000000000b52       0x18 libbb/lib.a(isdirectory.o)
 .comment       0x0000000000000b6a       0x18 libbb/lib.a(lineedit.o)
 .comment       0x0000000000000b82       0x18 libbb/lib.a(lineedit_ptr_hack.o)
 .comment       0x0000000000000b9a       0x18 libbb/lib.a(llist.o)
 .comment       0x0000000000000bb2       0x18 libbb/lib.a(login.o)
 .comment       0x0000000000000bca       0x18 libbb/lib.a(loop.o)
 .comment       0x0000000000000be2       0x18 libbb/lib.a(make_directory.o)
 .comment       0x0000000000000bfa       0x18 libbb/lib.a(makedev.o)
 .comment       0x0000000000000c12       0x18 libbb/lib.a(match_fstype.o)
 .comment       0x0000000000000c2a       0x18 libbb/lib.a(mode_string.o)
 .comment       0x0000000000000c42       0x18 libbb/lib.a(parse_config.o)
 .comment       0x0000000000000c5a       0x18 libbb/lib.a(parse_mode.o)
 .comment       0x0000000000000c72       0x18 libbb/lib.a(percent_decode.o)
 .comment       0x0000000000000c8a       0x18 libbb/lib.a(perror_nomsg_and_die.o)
 .comment       0x0000000000000ca2       0x18 libbb/lib.a(pidfile.o)
 .comment       0x0000000000000cba       0x18 libbb/lib.a(printable_string.o)
 .comment       0x0000000000000cd2       0x18 libbb/lib.a(process_escape_sequence.o)
 .comment       0x0000000000000cea       0x18 libbb/lib.a(procps.o)
 .comment       0x0000000000000d02       0x18 libbb/lib.a(progress.o)
 .comment       0x0000000000000d1a       0x18 libbb/lib.a(read_key.o)
 .comment       0x0000000000000d32       0x18 libbb/lib.a(read_printf.o)
 .comment       0x0000000000000d4a       0x18 libbb/lib.a(recursive_action.o)
 .comment       0x0000000000000d62       0x18 libbb/lib.a(remove_file.o)
 .comment       0x0000000000000d7a       0x18 libbb/lib.a(rtc.o)
 .comment       0x0000000000000d92       0x18 libbb/lib.a(safe_gethostname.o)
 .comment       0x0000000000000daa       0x18 libbb/lib.a(safe_poll.o)
 .comment       0x0000000000000dc2       0x18 libbb/lib.a(safe_strncpy.o)
 .comment       0x0000000000000dda       0x18 libbb/lib.a(signals.o)
 .comment       0x0000000000000df2       0x18 libbb/lib.a(simplify_path.o)
 .comment       0x0000000000000e0a       0x18 libbb/lib.a(skip_whitespace.o)
 .comment       0x0000000000000e22       0x18 libbb/lib.a(str_tolower.o)
 .comment       0x0000000000000e3a       0x18 libbb/lib.a(u_signal_names.o)
 .comment       0x0000000000000e52       0x18 libbb/lib.a(uuencode.o)
 .comment       0x0000000000000e6a       0x18 libbb/lib.a(vfork_daemon_rexec.o)
 .comment       0x0000000000000e82       0x18 libbb/lib.a(wfopen.o)
 .comment       0x0000000000000e9a       0x18 libbb/lib.a(wfopen_input.o)
 .comment       0x0000000000000eb2       0x18 libbb/lib.a(xatonum.o)
 .comment       0x0000000000000eca       0x18 libbb/lib.a(xconnect.o)
 .comment       0x0000000000000ee2       0x18 libbb/lib.a(xgetcwd.o)
 .comment       0x0000000000000efa       0x18 libbb/lib.a(xreadlink.o)
 .comment       0x0000000000000f12       0x18 libbb/lib.a(xrealloc_vector.o)
 .comment       0x0000000000000f2a       0x18 libbb/lib.a(bb_qsort.o)
 .comment       0x0000000000000f42       0x18 libbb/lib.a(concat_subpath_file.o)
 .comment       0x0000000000000f5a       0x18 /opt/workspace/rtl8198/rtl819x/toolchain/rsdk-1.3.6-5281-EB-2.6.30-0.9.30/lib/crtendS.o
 .comment       0x0000000000000f72       0x12 /opt/workspace/rtl8198/rtl819x/toolchain/rsdk-1.3.6-5281-EB-2.6.30-0.9.30/lib/crtn.o

.debug
 *(SORT(.debug))

.line
 *(SORT(.line))

.debug_srcinfo
 *(SORT(.debug_srcinfo))

.debug_sfnames
 *(SORT(.debug_sfnames))

.debug_aranges
 *(SORT(.debug_aranges))

.debug_pubnames
 *(SORT(.debug_pubnames))

.debug_info
 *(SORT(.debug_info) .gnu.linkonce.wi.*)

.debug_abbrev
 *(SORT(.debug_abbrev))

.debug_line
 *(SORT(.debug_line))

.debug_frame
 *(SORT(.debug_frame))

.debug_str
 *(SORT(.debug_str))

.debug_loc
 *(SORT(.debug_loc))

.debug_macinfo
 *(SORT(.debug_macinfo))

.debug_weaknames
 *(SORT(.debug_weaknames))

.debug_funcnames
 *(SORT(.debug_funcnames))

.debug_typenames
 *(SORT(.debug_typenames))

.debug_varnames
 *(SORT(.debug_varnames))

.gptab.sdata
 *(SORT(.gptab.data))
 *(SORT(.gptab.sdata))

.gptab.sbss
 *(SORT(.gptab.bss))
 *(SORT(.gptab.sbss))

.mdebug.abi32   0x0000000000000f84        0x0
 *(SORT(.mdebug.abi32))
 .mdebug.abi32  0x0000000000000f84        0x0 /opt/workspace/rtl8198/rtl819x/toolchain/rsdk-1.3.6-5281-EB-2.6.30-0.9.30/lib/crti.o
 .mdebug.abi32  0x0000000000000f84        0x0 /opt/workspace/rtl8198/rtl819x/toolchain/rsdk-1.3.6-5281-EB-2.6.30-0.9.30/lib/crtbeginS.o
 .mdebug.abi32  0x0000000000000f84        0x0 applets/built-in.o
 .mdebug.abi32  0x0000000000000f84        0x0 libbb/lib.a(appletlib.o)
 .mdebug.abi32  0x0000000000000f84        0x0 libbb/lib.a(default_error_retval.o)
 .mdebug.abi32  0x0000000000000f84        0x0 libbb/lib.a(get_last_path_component.o)
 .mdebug.abi32  0x0000000000000f84        0x0 libbb/lib.a(last_char_is.o)
 .mdebug.abi32  0x0000000000000f84        0x0 libbb/lib.a(messages.o)
 .mdebug.abi32  0x0000000000000f84        0x0 libbb/lib.a(ptr_to_globals.o)
 .mdebug.abi32  0x0000000000000f84        0x0 libbb/lib.a(verror_msg.o)
 .mdebug.abi32  0x0000000000000f84        0x0 libbb/lib.a(xfunc_die.o)
 .mdebug.abi32  0x0000000000000f84        0x0 libbb/lib.a(xfuncs.o)
 .mdebug.abi32  0x0000000000000f84        0x0 libbb/lib.a(xfuncs_printf.o)
 .mdebug.abi32  0x0000000000000f84        0x0 libbb/lib.a(copyfd.o)
 .mdebug.abi32  0x0000000000000f84        0x0 libbb/lib.a(full_write.o)
 .mdebug.abi32  0x0000000000000f84        0x0 libbb/lib.a(perror_msg.o)
 .mdebug.abi32  0x0000000000000f84        0x0 libbb/lib.a(read.o)
 .mdebug.abi32  0x0000000000000f84        0x0 libbb/lib.a(safe_write.o)
 .mdebug.abi32  0x0000000000000f84        0x0 libbb/lib.a(time.o)
 .mdebug.abi32  0x0000000000000f84        0x0 libbb/lib.a(bb_strtonum.o)
 .mdebug.abi32  0x0000000000000f84        0x0 miscutils/lib.a(flash_eraseall.o)
 .mdebug.abi32  0x0000000000000f84        0x0 miscutils/lib.a(flash_lock_unlock.o)
 .mdebug.abi32  0x0000000000000f84        0x0 miscutils/lib.a(watchdog.o)
 .mdebug.abi32  0x0000000000000f84        0x0 modutils/lib.a(insmod.o)
 .mdebug.abi32  0x0000000000000f84        0x0 modutils/lib.a(lsmod.o)
 .mdebug.abi32  0x0000000000000f84        0x0 modutils/lib.a(modutils.o)
 .mdebug.abi32  0x0000000000000f84        0x0 modutils/lib.a(rmmod.o)
 .mdebug.abi32  0x0000000000000f84        0x0 networking/lib.a(ftpgetput.o)
 .mdebug.abi32  0x0000000000000f84        0x0 networking/lib.a(ifconfig.o)
 .mdebug.abi32  0x0000000000000f84        0x0 networking/lib.a(interface.o)
 .mdebug.abi32  0x0000000000000f84        0x0 networking/lib.a(ping.o)
 .mdebug.abi32  0x0000000000000f84        0x0 networking/lib.a(route.o)
 .mdebug.abi32  0x0000000000000f84        0x0 networking/lib.a(vconfig.o)
 .mdebug.abi32  0x0000000000000f84        0x0 networking/lib.a(wget.o)
 .mdebug.abi32  0x0000000000000f84        0x0 networking/udhcp/lib.a(dhcpc.o)
 .mdebug.abi32  0x0000000000000f84        0x0 networking/udhcp/lib.a(domain_codec.o)
 .mdebug.abi32  0x0000000000000f84        0x0 networking/udhcp/lib.a(packet.o)
 .mdebug.abi32  0x0000000000000f84        0x0 networking/udhcp/lib.a(signalpipe.o)
 .mdebug.abi32  0x0000000000000f84        0x0 networking/udhcp/lib.a(socket.o)
 .mdebug.abi32  0x0000000000000f84        0x0 networking/udhcp/lib.a(common.o)
 .mdebug.abi32  0x0000000000000f84        0x0 procps/lib.a(kill.o)
 .mdebug.abi32  0x0000000000000f84        0x0 procps/lib.a(pidof.o)
 .mdebug.abi32  0x0000000000000f84        0x0 procps/lib.a(ps.o)
 .mdebug.abi32  0x0000000000000f84        0x0 procps/lib.a(uptime.o)
 .mdebug.abi32  0x0000000000000f84        0x0 shell/lib.a(ash.o)
 .mdebug.abi32  0x0000000000000f84        0x0 shell/lib.a(ash_ptr_hack.o)
 .mdebug.abi32  0x0000000000000f84        0x0 shell/lib.a(math.o)
 .mdebug.abi32  0x0000000000000f84        0x0 shell/lib.a(shell_common.o)
 .mdebug.abi32  0x0000000000000f84        0x0 sysklogd/lib.a(klogd.o)
 .mdebug.abi32  0x0000000000000f84        0x0 sysklogd/lib.a(logread.o)
 .mdebug.abi32  0x0000000000000f84        0x0 sysklogd/lib.a(syslogd_and_logger.o)
 .mdebug.abi32  0x0000000000000f84        0x0 util-linux/lib.a(dmesg.o)
 .mdebug.abi32  0x0000000000000f84        0x0 util-linux/lib.a(hwclock.o)
 .mdebug.abi32  0x0000000000000f84        0x0 util-linux/lib.a(mount.o)
 .mdebug.abi32  0x0000000000000f84        0x0 util-linux/lib.a(switch_root.o)
 .mdebug.abi32  0x0000000000000f84        0x0 util-linux/lib.a(umount.o)
 .mdebug.abi32  0x0000000000000f84        0x0 archival/lib.a(tar.o)
 .mdebug.abi32  0x0000000000000f84        0x0 archival/libarchive/lib.a(data_extract_all.o)
 .mdebug.abi32  0x0000000000000f84        0x0 archival/libarchive/lib.a(data_extract_to_command.o)
 .mdebug.abi32  0x0000000000000f84        0x0 archival/libarchive/lib.a(data_extract_to_stdout.o)
 .mdebug.abi32  0x0000000000000f84        0x0 archival/libarchive/lib.a(data_skip.o)
 .mdebug.abi32  0x0000000000000f84        0x0 archival/libarchive/lib.a(decompress_bunzip2.o)
 .mdebug.abi32  0x0000000000000f84        0x0 archival/libarchive/lib.a(filter_accept_reject_list.o)
 .mdebug.abi32  0x0000000000000f84        0x0 archival/libarchive/lib.a(find_list_entry.o)
 .mdebug.abi32  0x0000000000000f84        0x0 archival/libarchive/lib.a(get_header_tar.o)
 .mdebug.abi32  0x0000000000000f84        0x0 archival/libarchive/lib.a(get_header_tar_gz.o)
 .mdebug.abi32  0x0000000000000f84        0x0 archival/libarchive/lib.a(header_list.o)
 .mdebug.abi32  0x0000000000000f84        0x0 archival/libarchive/lib.a(header_verbose_list.o)
 .mdebug.abi32  0x0000000000000f84        0x0 archival/libarchive/lib.a(init_handle.o)
 .mdebug.abi32  0x0000000000000f84        0x0 archival/libarchive/lib.a(open_transformer.o)
 .mdebug.abi32  0x0000000000000f84        0x0 archival/libarchive/lib.a(seek_by_jump.o)
 .mdebug.abi32  0x0000000000000f84        0x0 archival/libarchive/lib.a(seek_by_read.o)
 .mdebug.abi32  0x0000000000000f84        0x0 archival/libarchive/lib.a(data_align.o)
 .mdebug.abi32  0x0000000000000f84        0x0 archival/libarchive/lib.a(decompress_unzip.o)
 .mdebug.abi32  0x0000000000000f84        0x0 archival/libarchive/lib.a(filter_accept_all.o)
 .mdebug.abi32  0x0000000000000f84        0x0 archival/libarchive/lib.a(header_skip.o)
 .mdebug.abi32  0x0000000000000f84        0x0 console-tools/lib.a(clear.o)
 .mdebug.abi32  0x0000000000000f84        0x0 coreutils/lib.a(basename.o)
 .mdebug.abi32  0x0000000000000f84        0x0 coreutils/lib.a(cat.o)
 .mdebug.abi32  0x0000000000000f84        0x0 coreutils/lib.a(chmod.o)
 .mdebug.abi32  0x0000000000000f84        0x0 coreutils/lib.a(cp.o)
 .mdebug.abi32  0x0000000000000f84        0x0 coreutils/lib.a(date.o)
 .mdebug.abi32  0x0000000000000f84        0x0 coreutils/lib.a(df.o)
 .mdebug.abi32  0x0000000000000f84        0x0 coreutils/lib.a(echo.o)
 .mdebug.abi32  0x0000000000000f84        0x0 coreutils/lib.a(ln.o)
 .mdebug.abi32  0x0000000000000f84        0x0 coreutils/lib.a(ls.o)
 .mdebug.abi32  0x0000000000000f84        0x0 coreutils/lib.a(mkdir.o)
 .mdebug.abi32  0x0000000000000f84        0x0 coreutils/lib.a(mknod.o)
 .mdebug.abi32  0x0000000000000f84        0x0 coreutils/lib.a(mv.o)
 .mdebug.abi32  0x0000000000000f84        0x0 coreutils/lib.a(printf.o)
 .mdebug.abi32  0x0000000000000f84        0x0 coreutils/lib.a(pwd.o)
 .mdebug.abi32  0x0000000000000f84        0x0 coreutils/lib.a(rm.o)
 .mdebug.abi32  0x0000000000000f84        0x0 coreutils/lib.a(sleep.o)
 .mdebug.abi32  0x0000000000000f84        0x0 coreutils/lib.a(sync.o)
 .mdebug.abi32  0x0000000000000f84        0x0 coreutils/lib.a(test.o)
 .mdebug.abi32  0x0000000000000f84        0x0 coreutils/lib.a(test_ptr_hack.o)
 .mdebug.abi32  0x0000000000000f84        0x0 coreutils/lib.a(touch.o)
 .mdebug.abi32  0x0000000000000f84        0x0 coreutils/lib.a(uname.o)
 .mdebug.abi32  0x0000000000000f84        0x0 coreutils/libcoreutils/lib.a(cp_mv_stat.o)
 .mdebug.abi32  0x0000000000000f84        0x0 coreutils/libcoreutils/lib.a(getopt_mk_fifo_nod.o)
 .mdebug.abi32  0x0000000000000f84        0x0 init/lib.a(halt.o)
 .mdebug.abi32  0x0000000000000f84        0x0 init/lib.a(init.o)
 .mdebug.abi32  0x0000000000000f84        0x0 libbb/lib.a(ask_confirmation.o)
 .mdebug.abi32  0x0000000000000f84        0x0 libbb/lib.a(bb_pwd.o)
 .mdebug.abi32  0x0000000000000f84        0x0 libbb/lib.a(compare_string_array.o)
 .mdebug.abi32  0x0000000000000f84        0x0 libbb/lib.a(concat_path_file.o)
 .mdebug.abi32  0x0000000000000f84        0x0 libbb/lib.a(copy_file.o)
 .mdebug.abi32  0x0000000000000f84        0x0 libbb/lib.a(crc32.o)
 .mdebug.abi32  0x0000000000000f84        0x0 libbb/lib.a(create_icmp_socket.o)
 .mdebug.abi32  0x0000000000000f84        0x0 libbb/lib.a(device_open.o)
 .mdebug.abi32  0x0000000000000f84        0x0 libbb/lib.a(execable.o)
 .mdebug.abi32  0x0000000000000f84        0x0 libbb/lib.a(fflush_stdout_and_exit.o)
 .mdebug.abi32  0x0000000000000f84        0x0 libbb/lib.a(find_mount_point.o)
 .mdebug.abi32  0x0000000000000f84        0x0 libbb/lib.a(find_pid_by_name.o)
 .mdebug.abi32  0x0000000000000f84        0x0 libbb/lib.a(get_line_from_file.o)
 .mdebug.abi32  0x0000000000000f84        0x0 libbb/lib.a(get_shell_name.o)
 .mdebug.abi32  0x0000000000000f84        0x0 libbb/lib.a(getopt32.o)
 .mdebug.abi32  0x0000000000000f84        0x0 libbb/lib.a(human_readable.o)
 .mdebug.abi32  0x0000000000000f84        0x0 libbb/lib.a(inet_common.o)
 .mdebug.abi32  0x0000000000000f84        0x0 libbb/lib.a(info_msg.o)
 .mdebug.abi32  0x0000000000000f84        0x0 libbb/lib.a(inode_hash.o)
 .mdebug.abi32  0x0000000000000f84        0x0 libbb/lib.a(isdirectory.o)
 .mdebug.abi32  0x0000000000000f84        0x0 libbb/lib.a(lineedit.o)
 .mdebug.abi32  0x0000000000000f84        0x0 libbb/lib.a(lineedit_ptr_hack.o)
 .mdebug.abi32  0x0000000000000f84        0x0 libbb/lib.a(llist.o)
 .mdebug.abi32  0x0000000000000f84        0x0 libbb/lib.a(login.o)
 .mdebug.abi32  0x0000000000000f84        0x0 libbb/lib.a(loop.o)
 .mdebug.abi32  0x0000000000000f84        0x0 libbb/lib.a(make_directory.o)
 .mdebug.abi32  0x0000000000000f84        0x0 libbb/lib.a(makedev.o)
 .mdebug.abi32  0x0000000000000f84        0x0 libbb/lib.a(match_fstype.o)
 .mdebug.abi32  0x0000000000000f84        0x0 libbb/lib.a(mode_string.o)
 .mdebug.abi32  0x0000000000000f84        0x0 libbb/lib.a(parse_config.o)
 .mdebug.abi32  0x0000000000000f84        0x0 libbb/lib.a(parse_mode.o)
 .mdebug.abi32  0x0000000000000f84        0x0 libbb/lib.a(percent_decode.o)
 .mdebug.abi32  0x0000000000000f84        0x0 libbb/lib.a(perror_nomsg_and_die.o)
 .mdebug.abi32  0x0000000000000f84        0x0 libbb/lib.a(pidfile.o)
 .mdebug.abi32  0x0000000000000f84        0x0 libbb/lib.a(printable_string.o)
 .mdebug.abi32  0x0000000000000f84        0x0 libbb/lib.a(process_escape_sequence.o)
 .mdebug.abi32  0x0000000000000f84        0x0 libbb/lib.a(procps.o)
 .mdebug.abi32  0x0000000000000f84        0x0 libbb/lib.a(progress.o)
 .mdebug.abi32  0x0000000000000f84        0x0 libbb/lib.a(read_key.o)
 .mdebug.abi32  0x0000000000000f84        0x0 libbb/lib.a(read_printf.o)
 .mdebug.abi32  0x0000000000000f84        0x0 libbb/lib.a(recursive_action.o)
 .mdebug.abi32  0x0000000000000f84        0x0 libbb/lib.a(remove_file.o)
 .mdebug.abi32  0x0000000000000f84        0x0 libbb/lib.a(rtc.o)
 .mdebug.abi32  0x0000000000000f84        0x0 libbb/lib.a(safe_gethostname.o)
 .mdebug.abi32  0x0000000000000f84        0x0 libbb/lib.a(safe_poll.o)
 .mdebug.abi32  0x0000000000000f84        0x0 libbb/lib.a(safe_strncpy.o)
 .mdebug.abi32  0x0000000000000f84        0x0 libbb/lib.a(signals.o)
 .mdebug.abi32  0x0000000000000f84        0x0 libbb/lib.a(simplify_path.o)
 .mdebug.abi32  0x0000000000000f84        0x0 libbb/lib.a(skip_whitespace.o)
 .mdebug.abi32  0x0000000000000f84        0x0 libbb/lib.a(str_tolower.o)
 .mdebug.abi32  0x0000000000000f84        0x0 libbb/lib.a(u_signal_names.o)
 .mdebug.abi32  0x0000000000000f84        0x0 libbb/lib.a(uuencode.o)
 .mdebug.abi32  0x0000000000000f84        0x0 libbb/lib.a(vfork_daemon_rexec.o)
 .mdebug.abi32  0x0000000000000f84        0x0 libbb/lib.a(wfopen.o)
 .mdebug.abi32  0x0000000000000f84        0x0 libbb/lib.a(wfopen_input.o)
 .mdebug.abi32  0x0000000000000f84        0x0 libbb/lib.a(xatonum.o)
 .mdebug.abi32  0x0000000000000f84        0x0 libbb/lib.a(xconnect.o)
 .mdebug.abi32  0x0000000000000f84        0x0 libbb/lib.a(xgetcwd.o)
 .mdebug.abi32  0x0000000000000f84        0x0 libbb/lib.a(xreadlink.o)
 .mdebug.abi32  0x0000000000000f84        0x0 libbb/lib.a(xrealloc_vector.o)
 .mdebug.abi32  0x0000000000000f84        0x0 libbb/lib.a(bb_qsort.o)
 .mdebug.abi32  0x0000000000000f84        0x0 libbb/lib.a(concat_subpath_file.o)
 .mdebug.abi32  0x0000000000000f84        0x0 /opt/workspace/rtl8198/rtl819x/toolchain/rsdk-1.3.6-5281-EB-2.6.30-0.9.30/lib/crtendS.o
 .mdebug.abi32  0x0000000000000f84        0x0 /opt/workspace/rtl8198/rtl819x/toolchain/rsdk-1.3.6-5281-EB-2.6.30-0.9.30/lib/crtn.o

.mdebug.abiN32
 *(SORT(.mdebug.abiN32))

.mdebug.abi64
 *(SORT(.mdebug.abi64))

.mdebug.abiO64
 *(SORT(.mdebug.abiO64))

.mdebug.eabi32
 *(SORT(.mdebug.eabi32))

.mdebug.eabi64
 *(SORT(.mdebug.eabi64))

.gcc_compiled_long32
 *(SORT(.gcc_compiled_long32))

.gcc_compiled_long64
 *(SORT(.gcc_compiled_long64))

/DISCARD/
 *(SORT(.note.GNU-stack))
OUTPUT(busybox_unstripped elf32-tradbigmips)

.pdr            0x0000000000000000        0x0
 .pdr           0x0000000000000000        0x0 /opt/workspace/rtl8198/rtl819x/toolchain/rsdk-1.3.6-5281-EB-2.6.30-0.9.30/lib/crt1.o
 .pdr           0x0000000000000000        0x0 /opt/workspace/rtl8198/rtl819x/toolchain/rsdk-1.3.6-5281-EB-2.6.30-0.9.30/lib/crtbeginS.o
 .pdr           0x0000000000000000        0x0 applets/built-in.o
 .pdr           0x0000000000000000        0x0 libbb/lib.a(default_error_retval.o)
 .pdr           0x0000000000000000        0x0 libbb/lib.a(messages.o)
 .pdr           0x0000000000000000        0x0 libbb/lib.a(ptr_to_globals.o)
 .pdr           0x0000000000000000        0x0 shell/lib.a(ash_ptr_hack.o)
 .pdr           0x0000000000000000        0x0 coreutils/lib.a(test_ptr_hack.o)
 .pdr           0x0000000000000000        0x0 libbb/lib.a(lineedit_ptr_hack.o)
 .pdr           0x0000000000000000        0x0 /opt/workspace/rtl8198/rtl819x/toolchain/rsdk-1.3.6-5281-EB-2.6.30-0.9.30/lib/crtendS.o
