
piggy.elf:     file format elf32-tradbigmips

Sections:
Idx Name          Size      VMA       LMA       File off  Algn
  0 .text         00000cd0  80100000  80100000  00010000  2**4
                  CONTENTS, ALLOC, LOAD, READONLY, CODE
  1 .reginfo      00000018  80100cd0  80100cd0  00010cd0  2**2
                  CONTENTS, ALLOC, LOAD, READONLY, DATA, LINK_ONCE_DISCARD
  2 .data         00004b34  80100cf0  80100cf0  00010cf0  2**4
                  CONTENTS, ALLOC, LOAD, DATA
  3 .pdr          00000080  00000000  00000000  00015824  2**2
                  CONTENTS, READONLY
  4 .debug_line   0000003d  00000000  00000000  000158a4  2**0
                  CONTENTS, READONLY, DEBUGGING
  5 .debug_info   0000006a  00000000  00000000  000158e1  2**0
                  CONTENTS, READONLY, DEBUGGING
  6 .debug_abbrev 00000014  00000000  00000000  0001594b  2**0
                  CONTENTS, READONLY, DEBUGGING
  7 .debug_aranges 00000020  00000000  00000000  00015960  2**3
                  CONTENTS, READONLY, DEBUGGING
  8 .debug_abbrev.1 00000140  00000000  00000000  00015980  2**0
                  CONTENTS, READONLY, DEBUGGING
  9 .debug_info.2 000004a3  00000000  00000000  00015ac0  2**0
                  CONTENTS, READONLY, DEBUGGING
 10 .debug_line.3 000000e1  00000000  00000000  00015f63  2**0
                  CONTENTS, READONLY, DEBUGGING
 11 .debug_frame  000000a0  00000000  00000000  00016044  2**2
                  CONTENTS, READONLY, DEBUGGING
 12 .debug_pubnames 00000066  00000000  00000000  000160e4  2**0
                  CONTENTS, READONLY, DEBUGGING
 13 .debug_aranges.4 00000020  00000000  00000000  0001614a  2**0
                  CONTENTS, READONLY, DEBUGGING
 14 .debug_ranges 00000160  00000000  00000000  0001616a  2**0
                  CONTENTS, READONLY, DEBUGGING
 15 .debug_str    0000000d  00000000  00000000  000162ca  2**0
                  CONTENTS, READONLY, DEBUGGING
 16 .comment      00000030  00000000  00000000  000162d7  2**0
                  CONTENTS, READONLY
 17 .debug_abbrev.5 000000d4  00000000  00000000  00016307  2**0
                  CONTENTS, READONLY, DEBUGGING
 18 .debug_info.6 000005d2  00000000  00000000  000163db  2**0
                  CONTENTS, READONLY, DEBUGGING
 19 .debug_line.7 000001cd  00000000  00000000  000169ad  2**0
                  CONTENTS, READONLY, DEBUGGING
 20 .debug_aranges.8 00000020  00000000  00000000  00016b7a  2**0
                  CONTENTS, READONLY, DEBUGGING
Disassembly of section .text:

80100000 <__start>:
        .set noreorder
		.globl __start              
__start:
		//setup stack pointer
		la	t0, __bss_end
80100000:	3c088010 	lui	t0,0x8010
80100004:	25085824 	addiu	t0,t0,22564
		nop
80100008:	00000000 	nop
		addi 	t0, t0, 4096
8010000c:	21081000 	addi	t0,t0,4096
		nop
80100010:	00000000 	nop
		move 	sp, t0
80100014:	0100e821 	move	sp,t0
		nop
80100018:	00000000 	nop

8010001c <test>:
test:
		jal	boot_entry
8010001c:	0c040014 	jal	80100050 <boot_entry>

80100020 <memcpy>:
80100020:	00803821 	move	a3,a0
80100024:	10c00008 	beqz	a2,80100048 <memcpy+0x28>
80100028:	24c3ffff 	addiu	v1,a2,-1
8010002c:	2406ffff 	li	a2,-1
80100030:	90a20000 	lbu	v0,0(a1)
80100034:	2463ffff 	addiu	v1,v1,-1
80100038:	24a50001 	addiu	a1,a1,1
8010003c:	a0e20000 	sb	v0,0(a3)
80100040:	1466fffb 	bne	v1,a2,80100030 <memcpy+0x10>
80100044:	24e70001 	addiu	a3,a3,1
80100048:	03e00008 	jr	ra
8010004c:	00801021 	move	v0,a0

80100050 <boot_entry>:
80100050:	27bdff40 	addiu	sp,sp,-192
80100054:	3c028010 	lui	v0,0x8010
80100058:	afb400b8 	sw	s4,184(sp)
8010005c:	244c0cf0 	addiu	t4,v0,3312
80100060:	afb300b4 	sw	s3,180(sp)
80100064:	3c0d00ff 	lui	t5,0xff
80100068:	afb200b0 	sw	s2,176(sp)
8010006c:	27b40088 	addiu	s4,sp,136
80100070:	afb100ac 	sw	s1,172(sp)
80100074:	27a50098 	addiu	a1,sp,152
80100078:	afb000a8 	sw	s0,168(sp)
8010007c:	25900005 	addiu	s0,t4,5
80100080:	afbf00bc 	sw	ra,188(sp)
80100084:	3c138040 	lui	s3,0x8040
80100088:	90440cf0 	lbu	a0,3312(v0)
8010008c:	91820001 	lbu	v0,1(t4)
80100090:	91830002 	lbu	v1,2(t4)
80100094:	00042600 	sll	a0,a0,0x18
80100098:	00021400 	sll	v0,v0,0x10
8010009c:	00441025 	or	v0,v0,a0
801000a0:	00031a00 	sll	v1,v1,0x8
801000a4:	00621825 	or	v1,v1,v0
801000a8:	02802021 	move	a0,s4
801000ac:	91820004 	lbu	v0,4(t4)
801000b0:	91860003 	lbu	a2,3(t4)
801000b4:	a3a2009c 	sb	v0,156(sp)
801000b8:	3c028010 	lui	v0,0x8010
801000bc:	00c33025 	or	a2,a2,v1
801000c0:	24425821 	addiu	v0,v0,22561
801000c4:	afa60098 	sw	a2,152(sp)
801000c8:	004c1023 	subu	v0,v0,t4
801000cc:	92030004 	lbu	v1,4(s0)
801000d0:	2452fff3 	addiu	s2,v0,-13
801000d4:	920a0005 	lbu	t2,5(s0)
801000d8:	24060005 	li	a2,5
801000dc:	920b0001 	lbu	t3,1(s0)
801000e0:	00031e00 	sll	v1,v1,0x18
801000e4:	92070006 	lbu	a3,6(s0)
801000e8:	000a5400 	sll	t2,t2,0x10
801000ec:	91820005 	lbu	v0,5(t4)
801000f0:	01435025 	or	t2,t2,v1
801000f4:	92080002 	lbu	t0,2(s0)
801000f8:	000b5c00 	sll	t3,t3,0x10
801000fc:	92090007 	lbu	t1,7(s0)
80100100:	00021600 	sll	v0,v0,0x18
80100104:	00073a00 	sll	a3,a3,0x8
80100108:	01625825 	or	t3,t3,v0
8010010c:	00ea3825 	or	a3,a3,t2
80100110:	00084200 	sll	t0,t0,0x8
80100114:	92030003 	lbu	v1,3(s0)
80100118:	01274825 	or	t1,t1,a3
8010011c:	010b4025 	or	t0,t0,t3
80100120:	3127ff00 	andi	a3,t1,0xff00
80100124:	00681825 	or	v1,v1,t0
80100128:	012d5024 	and	t2,t1,t5
8010012c:	00073a00 	sll	a3,a3,0x8
80100130:	3068ff00 	andi	t0,v1,0xff00
80100134:	00091600 	sll	v0,t1,0x18
80100138:	006d6824 	and	t5,v1,t5
8010013c:	00471025 	or	v0,v0,a3
80100140:	00084200 	sll	t0,t0,0x8
80100144:	00033e00 	sll	a3,v1,0x18
80100148:	000a5202 	srl	t2,t2,0x8
8010014c:	00e83825 	or	a3,a3,t0
80100150:	004a1025 	or	v0,v0,t2
80100154:	000d6a02 	srl	t5,t5,0x8
80100158:	00094e02 	srl	t1,t1,0x18
8010015c:	00ed3825 	or	a3,a3,t5
80100160:	00031e02 	srl	v1,v1,0x18
80100164:	00491025 	or	v0,v0,t1
80100168:	2590000d 	addiu	s0,t4,13
8010016c:	14400013 	bnez	v0,801001bc <boot_entry+0x16c>
80100170:	00e38825 	or	s1,a3,v1
80100174:	0c040078 	jal	801001e0 <LzmaDecodeProperties>
80100178:	00000000 	nop
8010017c:	02802021 	move	a0,s4
80100180:	02002821 	move	a1,s0
80100184:	02403021 	move	a2,s2
80100188:	1440000c 	bnez	v0,801001bc <boot_entry+0x16c>
8010018c:	27a700a4 	addiu	a3,sp,164
80100190:	3c028030 	lui	v0,0x8030
80100194:	afa20094 	sw	v0,148(sp)
80100198:	27a200a0 	addiu	v0,sp,160
8010019c:	afb10014 	sw	s1,20(sp)
801001a0:	afa20018 	sw	v0,24(sp)
801001a4:	0c040097 	jal	8010025c <LzmaDecode>
801001a8:	afb30010 	sw	s3,16(sp)
801001ac:	14400003 	bnez	v0,801001bc <boot_entry+0x16c>
801001b0:	00000000 	nop
801001b4:	0260f809 	jalr	s3
801001b8:	00000000 	nop
801001bc:	8fbf00bc 	lw	ra,188(sp)
801001c0:	8fb400b8 	lw	s4,184(sp)
801001c4:	8fb300b4 	lw	s3,180(sp)
801001c8:	8fb200b0 	lw	s2,176(sp)
801001cc:	8fb100ac 	lw	s1,172(sp)
801001d0:	8fb000a8 	lw	s0,168(sp)
801001d4:	03e00008 	jr	ra
801001d8:	27bd00c0 	addiu	sp,sp,192
801001dc:	00000000 	nop

801001e0 <LzmaDecodeProperties>:
801001e0:	28c60005 	slti	a2,a2,5
801001e4:	14c0001b 	bnez	a2,80100254 <LzmaDecodeProperties+0x74>
801001e8:	24030001 	li	v1,1
801001ec:	90a50000 	lbu	a1,0(a1)
801001f0:	2ca200e1 	sltiu	v0,a1,225
801001f4:	10400017 	beqz	v0,80100254 <LzmaDecodeProperties+0x74>
801001f8:	00000000 	nop
801001fc:	2ca2002d 	sltiu	v0,a1,45
80100200:	14400008 	bnez	v0,80100224 <LzmaDecodeProperties+0x44>
80100204:	ac800008 	sw	zero,8(a0)
80100208:	00001821 	move	v1,zero
8010020c:	24a2ffd3 	addiu	v0,a1,-45
80100210:	304500ff 	andi	a1,v0,0xff
80100214:	2ca2002d 	sltiu	v0,a1,45
80100218:	1040fffc 	beqz	v0,8010020c <LzmaDecodeProperties+0x2c>
8010021c:	24630001 	addiu	v1,v1,1
80100220:	ac830008 	sw	v1,8(a0)
80100224:	2ca20009 	sltiu	v0,a1,9
80100228:	14400008 	bnez	v0,8010024c <LzmaDecodeProperties+0x6c>
8010022c:	ac800004 	sw	zero,4(a0)
80100230:	00001821 	move	v1,zero
80100234:	24a2fff7 	addiu	v0,a1,-9
80100238:	304500ff 	andi	a1,v0,0xff
8010023c:	2ca20009 	sltiu	v0,a1,9
80100240:	1040fffc 	beqz	v0,80100234 <LzmaDecodeProperties+0x54>
80100244:	24630001 	addiu	v1,v1,1
80100248:	ac830004 	sw	v1,4(a0)
8010024c:	ac850000 	sw	a1,0(a0)
80100250:	00001821 	move	v1,zero
80100254:	03e00008 	jr	ra
80100258:	00601021 	move	v0,v1

8010025c <LzmaDecode>:
8010025c:	27bdffc0 	addiu	sp,sp,-64
80100260:	24020001 	li	v0,1
80100264:	afb30024 	sw	s3,36(sp)
80100268:	00006021 	move	t4,zero
8010026c:	afb1001c 	sw	s1,28(sp)
80100270:	00009821 	move	s3,zero
80100274:	afb00018 	sw	s0,24(sp)
80100278:	24100001 	li	s0,1
8010027c:	afbe0038 	sw	s8,56(sp)
80100280:	00008821 	move	s1,zero
80100284:	afb70034 	sw	s7,52(sp)
80100288:	afb60030 	sw	s6,48(sp)
8010028c:	afb5002c 	sw	s5,44(sp)
80100290:	afb40028 	sw	s4,40(sp)
80100294:	afb20020 	sw	s2,32(sp)
80100298:	8c830004 	lw	v1,4(a0)
8010029c:	afa7004c 	sw	a3,76(sp)
801002a0:	8c870008 	lw	a3,8(a0)
801002a4:	afa50044 	sw	a1,68(sp)
801002a8:	00e23804 	sllv	a3,v0,a3
801002ac:	00621004 	sllv	v0,v0,v1
801002b0:	8fa5004c 	lw	a1,76(sp)
801002b4:	2442ffff 	addiu	v0,v0,-1
801002b8:	8fa30058 	lw	v1,88(sp)
801002bc:	24e7ffff 	addiu	a3,a3,-1
801002c0:	8c9e0000 	lw	s8,0(a0)
801002c4:	aca00000 	sw	zero,0(a1)
801002c8:	ac600000 	sw	zero,0(v1)
801002cc:	8c830004 	lw	v1,4(a0)
801002d0:	afa20004 	sw	v0,4(sp)
801002d4:	24020300 	li	v0,768
801002d8:	03c31821 	addu	v1,s8,v1
801002dc:	00621004 	sllv	v0,v0,v1
801002e0:	24450736 	addiu	a1,v0,1846
801002e4:	8c92000c 	lw	s2,12(a0)
801002e8:	00002021 	move	a0,zero
801002ec:	afa70000 	sw	a3,0(sp)
801002f0:	afb00008 	sw	s0,8(sp)
801002f4:	afb0000c 	sw	s0,12(sp)
801002f8:	10a00008 	beqz	a1,8010031c <LzmaDecode+0xc0>
801002fc:	afb00010 	sw	s0,16(sp)
80100300:	24080400 	li	t0,1024
80100304:	02401821 	move	v1,s2
80100308:	24840001 	addiu	a0,a0,1
8010030c:	0085102b 	sltu	v0,a0,a1
80100310:	ac680000 	sw	t0,0(v1)
80100314:	1440fffc 	bnez	v0,80100308 <LzmaDecode+0xac>
80100318:	24630004 	addiu	v1,v1,4
8010031c:	8fa40044 	lw	a0,68(sp)
80100320:	00005821 	move	t3,zero
80100324:	240affff 	li	t2,-1
80100328:	00001821 	move	v1,zero
8010032c:	00863021 	addu	a2,a0,a2
80100330:	00804821 	move	t1,a0
80100334:	24630001 	addiu	v1,v1,1
80100338:	000b2a00 	sll	a1,t3,0x8
8010033c:	1126024e 	beq	t1,a2,80100c78 <LzmaDecode+0xa1c>
80100340:	28640005 	slti	a0,v1,5
80100344:	91220000 	lbu	v0,0(t1)
80100348:	25290001 	addiu	t1,t1,1
8010034c:	1480fff9 	bnez	a0,80100334 <LzmaDecode+0xd8>
80100350:	00a25825 	or	t3,a1,v0
80100354:	8fa50054 	lw	a1,84(sp)
80100358:	10a0023e 	beqz	a1,80100c54 <LzmaDecode+0x9f8>
8010035c:	3c0200ff 	lui	v0,0xff
80100360:	24170800 	li	s7,2048
80100364:	3456ffff 	ori	s6,v0,0xffff
80100368:	8fa20000 	lw	v0,0(sp)
8010036c:	02ca182b 	sltu	v1,s6,t2
80100370:	02227024 	and	t6,s1,v0
80100374:	00131100 	sll	v0,s3,0x4
80100378:	004e1021 	addu	v0,v0,t6
8010037c:	00021080 	sll	v0,v0,0x2
80100380:	14600007 	bnez	v1,801003a0 <LzmaDecode+0x144>
80100384:	00526821 	addu	t5,v0,s2
80100388:	1126023b 	beq	t1,a2,80100c78 <LzmaDecode+0xa1c>
8010038c:	000b1200 	sll	v0,t3,0x8
80100390:	91230000 	lbu	v1,0(t1)
80100394:	000a5200 	sll	t2,t2,0x8
80100398:	25290001 	addiu	t1,t1,1
8010039c:	00435825 	or	t3,v0,v1
801003a0:	8da80000 	lw	t0,0(t5)
801003a4:	000a12c2 	srl	v0,t2,0xb
801003a8:	00480018 	mult	v0,t0
801003ac:	00002812 	mflo	a1
801003b0:	0165102b 	sltu	v0,t3,a1
801003b4:	1040007a 	beqz	v0,801005a0 <LzmaDecode+0x344>
801003b8:	00081142 	srl	v0,t0,0x5
801003bc:	8fa20004 	lw	v0,4(sp)
801003c0:	02e82023 	subu	a0,s7,t0
801003c4:	00042142 	srl	a0,a0,0x5
801003c8:	00005012 	mflo	t2
801003cc:	02221824 	and	v1,s1,v0
801003d0:	24020008 	li	v0,8
801003d4:	005e1023 	subu	v0,v0,s8
801003d8:	03c31804 	sllv	v1,v1,s8
801003dc:	004c1007 	srav	v0,t4,v0
801003e0:	01042021 	addu	a0,t0,a0
801003e4:	00621821 	addu	v1,v1,v0
801003e8:	240f0001 	li	t7,1
801003ec:	00031040 	sll	v0,v1,0x1
801003f0:	00431021 	addu	v0,v0,v1
801003f4:	2a630007 	slti	v1,s3,7
801003f8:	00021280 	sll	v0,v0,0xa
801003fc:	02421021 	addu	v0,s2,v0
80100400:	ada40000 	sw	a0,0(t5)
80100404:	14600033 	bnez	v1,801004d4 <LzmaDecode+0x278>
80100408:	244d1cd8 	addiu	t5,v0,7384
8010040c:	8fa40050 	lw	a0,80(sp)
80100410:	02301023 	subu	v0,s1,s0
80100414:	3c0300ff 	lui	v1,0xff
80100418:	24140800 	li	s4,2048
8010041c:	00821021 	addu	v0,a0,v0
80100420:	3475ffff 	ori	s5,v1,0xffff
80100424:	90590000 	lbu	t9,0(v0)
80100428:	0019c840 	sll	t9,t9,0x1
8010042c:	000f1080 	sll	v0,t7,0x2
80100430:	33380100 	andi	t8,t9,0x100
80100434:	000f7040 	sll	t6,t7,0x1
80100438:	00181880 	sll	v1,t8,0x2
8010043c:	02aa202b 	sltu	a0,s5,t2
80100440:	01a31821 	addu	v1,t5,v1
80100444:	000b2a00 	sll	a1,t3,0x8
80100448:	00624021 	addu	t0,v1,v0
8010044c:	14800006 	bnez	a0,80100468 <LzmaDecode+0x20c>
80100450:	01c07821 	move	t7,t6
80100454:	11260208 	beq	t1,a2,80100c78 <LzmaDecode+0xa1c>
80100458:	000a5200 	sll	t2,t2,0x8
8010045c:	91220000 	lbu	v0,0(t1)
80100460:	25290001 	addiu	t1,t1,1
80100464:	00a25825 	or	t3,a1,v0
80100468:	8d030400 	lw	v1,1024(t0)
8010046c:	000a12c2 	srl	v0,t2,0xb
80100470:	00430018 	mult	v0,v1
80100474:	02831023 	subu	v0,s4,v1
80100478:	00021142 	srl	v0,v0,0x5
8010047c:	00626021 	addu	t4,v1,v0
80100480:	00032142 	srl	a0,v1,0x5
80100484:	00641823 	subu	v1,v1,a0
80100488:	00002812 	mflo	a1
8010048c:	0165102b 	sltu	v0,t3,a1
80100490:	10400006 	beqz	v0,801004ac <LzmaDecode+0x250>
80100494:	01455023 	subu	t2,t2,a1
80100498:	00005012 	mflo	t2
8010049c:	13000007 	beqz	t8,801004bc <LzmaDecode+0x260>
801004a0:	ad0c0400 	sw	t4,1024(t0)
801004a4:	08040133 	j	801004cc <LzmaDecode+0x270>
801004a8:	29e20100 	slti	v0,t7,256
801004ac:	ad030400 	sw	v1,1024(t0)
801004b0:	01655823 	subu	t3,t3,a1
801004b4:	13000004 	beqz	t8,801004c8 <LzmaDecode+0x26c>
801004b8:	25cf0001 	addiu	t7,t6,1
801004bc:	29e20100 	slti	v0,t7,256
801004c0:	1440ffd9 	bnez	v0,80100428 <LzmaDecode+0x1cc>
801004c4:	00000000 	nop
801004c8:	29e20100 	slti	v0,t7,256
801004cc:	10400025 	beqz	v0,80100564 <LzmaDecode+0x308>
801004d0:	00000000 	nop
801004d4:	3c0200ff 	lui	v0,0xff
801004d8:	24180800 	li	t8,2048
801004dc:	3454ffff 	ori	s4,v0,0xffff
801004e0:	000f1080 	sll	v0,t7,0x2
801004e4:	028a182b 	sltu	v1,s4,t2
801004e8:	000b2200 	sll	a0,t3,0x8
801004ec:	14600006 	bnez	v1,80100508 <LzmaDecode+0x2ac>
801004f0:	01a24021 	addu	t0,t5,v0
801004f4:	112601e0 	beq	t1,a2,80100c78 <LzmaDecode+0xa1c>
801004f8:	000a5200 	sll	t2,t2,0x8
801004fc:	91220000 	lbu	v0,0(t1)
80100500:	25290001 	addiu	t1,t1,1
80100504:	00825825 	or	t3,a0,v0
80100508:	8d030000 	lw	v1,0(t0)
8010050c:	000a12c2 	srl	v0,t2,0xb
80100510:	000f7040 	sll	t6,t7,0x1
80100514:	00430018 	mult	v0,v1
80100518:	03031023 	subu	v0,t8,v1
8010051c:	00021142 	srl	v0,v0,0x5
80100520:	00626021 	addu	t4,v1,v0
80100524:	00032142 	srl	a0,v1,0x5
80100528:	01c07821 	move	t7,t6
8010052c:	00641823 	subu	v1,v1,a0
80100530:	00002812 	mflo	a1
80100534:	0165102b 	sltu	v0,t3,a1
80100538:	10400004 	beqz	v0,8010054c <LzmaDecode+0x2f0>
8010053c:	01455023 	subu	t2,t2,a1
80100540:	00005012 	mflo	t2
80100544:	08040156 	j	80100558 <LzmaDecode+0x2fc>
80100548:	ad0c0000 	sw	t4,0(t0)
8010054c:	01655823 	subu	t3,t3,a1
80100550:	25cf0001 	addiu	t7,t6,1
80100554:	ad030000 	sw	v1,0(t0)
80100558:	29e20100 	slti	v0,t7,256
8010055c:	1440ffe1 	bnez	v0,801004e4 <LzmaDecode+0x288>
80100560:	000f1080 	sll	v0,t7,0x2
80100564:	8fa30050 	lw	v1,80(sp)
80100568:	31ec00ff 	andi	t4,t7,0xff
8010056c:	02231021 	addu	v0,s1,v1
80100570:	2a630004 	slti	v1,s3,4
80100574:	26310001 	addiu	s1,s1,1
80100578:	10600003 	beqz	v1,80100588 <LzmaDecode+0x32c>
8010057c:	a04c0000 	sb	t4,0(v0)
80100580:	08040311 	j	80100c44 <LzmaDecode+0x9e8>
80100584:	00009821 	move	s3,zero
80100588:	2662fffd 	addiu	v0,s3,-3
8010058c:	2664fffa 	addiu	a0,s3,-6
80100590:	2a63000a 	slti	v1,s3,10
80100594:	00409821 	move	s3,v0
80100598:	08040311 	j	80100c44 <LzmaDecode+0x9e8>
8010059c:	0083980a 	0x83980a
801005a0:	01455023 	subu	t2,t2,a1
801005a4:	01021023 	subu	v0,t0,v0
801005a8:	00131880 	sll	v1,s3,0x2
801005ac:	02ca202b 	sltu	a0,s6,t2
801005b0:	01655823 	subu	t3,t3,a1
801005b4:	ada20000 	sw	v0,0(t5)
801005b8:	14800007 	bnez	a0,801005d8 <LzmaDecode+0x37c>
801005bc:	02434021 	addu	t0,s2,v1
801005c0:	112601ad 	beq	t1,a2,80100c78 <LzmaDecode+0xa1c>
801005c4:	000b1200 	sll	v0,t3,0x8
801005c8:	91230000 	lbu	v1,0(t1)
801005cc:	000a5200 	sll	t2,t2,0x8
801005d0:	25290001 	addiu	t1,t1,1
801005d4:	00435825 	or	t3,v0,v1
801005d8:	8d030300 	lw	v1,768(t0)
801005dc:	000a12c2 	srl	v0,t2,0xb
801005e0:	00430018 	mult	v0,v1
801005e4:	00002812 	mflo	a1
801005e8:	0165102b 	sltu	v0,t3,a1
801005ec:	10400011 	beqz	v0,80100634 <LzmaDecode+0x3d8>
801005f0:	00031142 	srl	v0,v1,0x5
801005f4:	02e31023 	subu	v0,s7,v1
801005f8:	2a640007 	slti	a0,s3,7
801005fc:	00021142 	srl	v0,v0,0x5
80100600:	00009821 	move	s3,zero
80100604:	00621021 	addu	v0,v1,v0
80100608:	24030003 	li	v1,3
8010060c:	0064980a 	0x64980a
80100610:	00005012 	mflo	t2
80100614:	8fa3000c 	lw	v1,12(sp)
80100618:	264d0cc8 	addiu	t5,s2,3272
8010061c:	8fa40008 	lw	a0,8(sp)
80100620:	afa30010 	sw	v1,16(sp)
80100624:	afa4000c 	sw	a0,12(sp)
80100628:	afb00008 	sw	s0,8(sp)
8010062c:	08040213 	j	8010084c <LzmaDecode+0x5f0>
80100630:	ad020300 	sw	v0,768(t0)
80100634:	01455023 	subu	t2,t2,a1
80100638:	00621023 	subu	v0,v1,v0
8010063c:	02ca182b 	sltu	v1,s6,t2
80100640:	01655823 	subu	t3,t3,a1
80100644:	14600007 	bnez	v1,80100664 <LzmaDecode+0x408>
80100648:	ad020300 	sw	v0,768(t0)
8010064c:	1126018a 	beq	t1,a2,80100c78 <LzmaDecode+0xa1c>
80100650:	000b1200 	sll	v0,t3,0x8
80100654:	91230000 	lbu	v1,0(t1)
80100658:	000a5200 	sll	t2,t2,0x8
8010065c:	25290001 	addiu	t1,t1,1
80100660:	00435825 	or	t3,v0,v1
80100664:	8d040330 	lw	a0,816(t0)
80100668:	000a12c2 	srl	v0,t2,0xb
8010066c:	00440018 	mult	v0,a0
80100670:	00002812 	mflo	a1
80100674:	0165102b 	sltu	v0,t3,a1
80100678:	10400030 	beqz	v0,8010073c <LzmaDecode+0x4e0>
8010067c:	01455023 	subu	t2,t2,a1
80100680:	02e41023 	subu	v0,s7,a0
80100684:	00005012 	mflo	t2
80100688:	00021142 	srl	v0,v0,0x5
8010068c:	00131980 	sll	v1,s3,0x6
80100690:	00821021 	addu	v0,a0,v0
80100694:	02431821 	addu	v1,s2,v1
80100698:	000e2080 	sll	a0,t6,0x2
8010069c:	02ca282b 	sltu	a1,s6,t2
801006a0:	ad020330 	sw	v0,816(t0)
801006a4:	14a00007 	bnez	a1,801006c4 <LzmaDecode+0x468>
801006a8:	00642021 	addu	a0,v1,a0
801006ac:	11260172 	beq	t1,a2,80100c78 <LzmaDecode+0xa1c>
801006b0:	000b1200 	sll	v0,t3,0x8
801006b4:	91230000 	lbu	v1,0(t1)
801006b8:	000a5200 	sll	t2,t2,0x8
801006bc:	25290001 	addiu	t1,t1,1
801006c0:	00435825 	or	t3,v0,v1
801006c4:	8c8303c0 	lw	v1,960(a0)
801006c8:	000a12c2 	srl	v0,t2,0xb
801006cc:	00430018 	mult	v0,v1
801006d0:	00002812 	mflo	a1
801006d4:	0165102b 	sltu	v0,t3,a1
801006d8:	10400013 	beqz	v0,80100728 <LzmaDecode+0x4cc>
801006dc:	00031142 	srl	v0,v1,0x5
801006e0:	02e31023 	subu	v0,s7,v1
801006e4:	00005012 	mflo	t2
801006e8:	00021142 	srl	v0,v0,0x5
801006ec:	00621021 	addu	v0,v1,v0
801006f0:	12200161 	beqz	s1,80100c78 <LzmaDecode+0xa1c>
801006f4:	ac8203c0 	sw	v0,960(a0)
801006f8:	8fa40050 	lw	a0,80(sp)
801006fc:	02301023 	subu	v0,s1,s0
80100700:	2a630007 	slti	v1,s3,7
80100704:	24130009 	li	s3,9
80100708:	00821021 	addu	v0,a0,v0
8010070c:	904c0000 	lbu	t4,0(v0)
80100710:	2402000b 	li	v0,11
80100714:	0043980a 	0x43980a
80100718:	02241021 	addu	v0,s1,a0
8010071c:	26310001 	addiu	s1,s1,1
80100720:	08040311 	j	80100c44 <LzmaDecode+0x9e8>
80100724:	a04c0000 	sb	t4,0(v0)
80100728:	01655823 	subu	t3,t3,a1
8010072c:	00621023 	subu	v0,v1,v0
80100730:	01455023 	subu	t2,t2,a1
80100734:	0804020e 	j	80100838 <LzmaDecode+0x5dc>
80100738:	ac8203c0 	sw	v0,960(a0)
8010073c:	00041142 	srl	v0,a0,0x5
80100740:	00821023 	subu	v0,a0,v0
80100744:	02ca182b 	sltu	v1,s6,t2
80100748:	01655823 	subu	t3,t3,a1
8010074c:	14600007 	bnez	v1,8010076c <LzmaDecode+0x510>
80100750:	ad020330 	sw	v0,816(t0)
80100754:	11260148 	beq	t1,a2,80100c78 <LzmaDecode+0xa1c>
80100758:	000b1200 	sll	v0,t3,0x8
8010075c:	91230000 	lbu	v1,0(t1)
80100760:	000a5200 	sll	t2,t2,0x8
80100764:	25290001 	addiu	t1,t1,1
80100768:	00435825 	or	t3,v0,v1
8010076c:	8d030360 	lw	v1,864(t0)
80100770:	000a12c2 	srl	v0,t2,0xb
80100774:	00430018 	mult	v0,v1
80100778:	00002812 	mflo	a1
8010077c:	0165102b 	sltu	v0,t3,a1
80100780:	10400008 	beqz	v0,801007a4 <LzmaDecode+0x548>
80100784:	00031142 	srl	v0,v1,0x5
80100788:	02e31023 	subu	v0,s7,v1
8010078c:	00005012 	mflo	t2
80100790:	00021142 	srl	v0,v0,0x5
80100794:	8fa40008 	lw	a0,8(sp)
80100798:	00621021 	addu	v0,v1,v0
8010079c:	0804020c 	j	80100830 <LzmaDecode+0x5d4>
801007a0:	ad020360 	sw	v0,864(t0)
801007a4:	01455023 	subu	t2,t2,a1
801007a8:	00621023 	subu	v0,v1,v0
801007ac:	02ca182b 	sltu	v1,s6,t2
801007b0:	01655823 	subu	t3,t3,a1
801007b4:	14600007 	bnez	v1,801007d4 <LzmaDecode+0x578>
801007b8:	ad020360 	sw	v0,864(t0)
801007bc:	1126012e 	beq	t1,a2,80100c78 <LzmaDecode+0xa1c>
801007c0:	000b1200 	sll	v0,t3,0x8
801007c4:	91230000 	lbu	v1,0(t1)
801007c8:	000a5200 	sll	t2,t2,0x8
801007cc:	25290001 	addiu	t1,t1,1
801007d0:	00435825 	or	t3,v0,v1
801007d4:	8d030390 	lw	v1,912(t0)
801007d8:	000a12c2 	srl	v0,t2,0xb
801007dc:	00430018 	mult	v0,v1
801007e0:	00002812 	mflo	a1
801007e4:	0165102b 	sltu	v0,t3,a1
801007e8:	10400008 	beqz	v0,8010080c <LzmaDecode+0x5b0>
801007ec:	00031142 	srl	v0,v1,0x5
801007f0:	02e31023 	subu	v0,s7,v1
801007f4:	00005012 	mflo	t2
801007f8:	00021142 	srl	v0,v0,0x5
801007fc:	8fa4000c 	lw	a0,12(sp)
80100800:	00621021 	addu	v0,v1,v0
80100804:	0804020a 	j	80100828 <LzmaDecode+0x5cc>
80100808:	ad020390 	sw	v0,912(t0)
8010080c:	01655823 	subu	t3,t3,a1
80100810:	00621023 	subu	v0,v1,v0
80100814:	01455023 	subu	t2,t2,a1
80100818:	ad020390 	sw	v0,912(t0)
8010081c:	8fa2000c 	lw	v0,12(sp)
80100820:	8fa40010 	lw	a0,16(sp)
80100824:	afa20010 	sw	v0,16(sp)
80100828:	8fa30008 	lw	v1,8(sp)
8010082c:	afa3000c 	sw	v1,12(sp)
80100830:	afb00008 	sw	s0,8(sp)
80100834:	00808021 	move	s0,a0
80100838:	2a630007 	slti	v1,s3,7
8010083c:	2402000b 	li	v0,11
80100840:	24130008 	li	s3,8
80100844:	264d14d0 	addiu	t5,s2,5328
80100848:	0043980a 	0x43980a
8010084c:	02ca102b 	sltu	v0,s6,t2
80100850:	14400007 	bnez	v0,80100870 <LzmaDecode+0x614>
80100854:	00000000 	nop
80100858:	11260107 	beq	t1,a2,80100c78 <LzmaDecode+0xa1c>
8010085c:	000b1200 	sll	v0,t3,0x8
80100860:	91230000 	lbu	v1,0(t1)
80100864:	000a5200 	sll	t2,t2,0x8
80100868:	25290001 	addiu	t1,t1,1
8010086c:	00435825 	or	t3,v0,v1
80100870:	8da80000 	lw	t0,0(t5)
80100874:	000a12c2 	srl	v0,t2,0xb
80100878:	00480018 	mult	v0,t0
8010087c:	00002812 	mflo	a1
80100880:	0165102b 	sltu	v0,t3,a1
80100884:	1040000c 	beqz	v0,801008b8 <LzmaDecode+0x65c>
80100888:	00081142 	srl	v0,t0,0x5
8010088c:	000e1940 	sll	v1,t6,0x5
80100890:	02e81023 	subu	v0,s7,t0
80100894:	01a31821 	addu	v1,t5,v1
80100898:	00021142 	srl	v0,v0,0x5
8010089c:	01021021 	addu	v0,t0,v0
801008a0:	00005012 	mflo	t2
801008a4:	246f0008 	addiu	t7,v1,8
801008a8:	0000c821 	move	t9,zero
801008ac:	24070003 	li	a3,3
801008b0:	08040253 	j	8010094c <LzmaDecode+0x6f0>
801008b4:	ada20000 	sw	v0,0(t5)
801008b8:	01455023 	subu	t2,t2,a1
801008bc:	01021023 	subu	v0,t0,v0
801008c0:	02ca182b 	sltu	v1,s6,t2
801008c4:	01655823 	subu	t3,t3,a1
801008c8:	14600007 	bnez	v1,801008e8 <LzmaDecode+0x68c>
801008cc:	ada20000 	sw	v0,0(t5)
801008d0:	112600e9 	beq	t1,a2,80100c78 <LzmaDecode+0xa1c>
801008d4:	000b1200 	sll	v0,t3,0x8
801008d8:	91230000 	lbu	v1,0(t1)
801008dc:	000a5200 	sll	t2,t2,0x8
801008e0:	25290001 	addiu	t1,t1,1
801008e4:	00435825 	or	t3,v0,v1
801008e8:	8da80004 	lw	t0,4(t5)
801008ec:	000a12c2 	srl	v0,t2,0xb
801008f0:	00480018 	mult	v0,t0
801008f4:	00002812 	mflo	a1
801008f8:	0165102b 	sltu	v0,t3,a1
801008fc:	1040000c 	beqz	v0,80100930 <LzmaDecode+0x6d4>
80100900:	00081142 	srl	v0,t0,0x5
80100904:	000e1940 	sll	v1,t6,0x5
80100908:	02e81023 	subu	v0,s7,t0
8010090c:	01a31821 	addu	v1,t5,v1
80100910:	00021142 	srl	v0,v0,0x5
80100914:	01021021 	addu	v0,t0,v0
80100918:	00005012 	mflo	t2
8010091c:	246f0208 	addiu	t7,v1,520
80100920:	24190008 	li	t9,8
80100924:	24070003 	li	a3,3
80100928:	08040253 	j	8010094c <LzmaDecode+0x6f0>
8010092c:	ada20004 	sw	v0,4(t5)
80100930:	01655823 	subu	t3,t3,a1
80100934:	01021023 	subu	v0,t0,v0
80100938:	01455023 	subu	t2,t2,a1
8010093c:	ada20004 	sw	v0,4(t5)
80100940:	25af0408 	addiu	t7,t5,1032
80100944:	24190010 	li	t9,16
80100948:	24070008 	li	a3,8
8010094c:	3c0200ff 	lui	v0,0xff
80100950:	00e07021 	move	t6,a3
80100954:	24180001 	li	t8,1
80100958:	3455ffff 	ori	s5,v0,0xffff
8010095c:	24140800 	li	s4,2048
80100960:	00181080 	sll	v0,t8,0x2
80100964:	02aa182b 	sltu	v1,s5,t2
80100968:	000b2200 	sll	a0,t3,0x8
8010096c:	14600006 	bnez	v1,80100988 <LzmaDecode+0x72c>
80100970:	01e24021 	addu	t0,t7,v0
80100974:	112600c0 	beq	t1,a2,80100c78 <LzmaDecode+0xa1c>
80100978:	000a5200 	sll	t2,t2,0x8
8010097c:	91220000 	lbu	v0,0(t1)
80100980:	25290001 	addiu	t1,t1,1
80100984:	00825825 	or	t3,a0,v0
80100988:	8d030000 	lw	v1,0(t0)
8010098c:	000a12c2 	srl	v0,t2,0xb
80100990:	00186840 	sll	t5,t8,0x1
80100994:	00430018 	mult	v0,v1
80100998:	02831023 	subu	v0,s4,v1
8010099c:	00021142 	srl	v0,v0,0x5
801009a0:	00626021 	addu	t4,v1,v0
801009a4:	00032142 	srl	a0,v1,0x5
801009a8:	01a0c021 	move	t8,t5
801009ac:	00641823 	subu	v1,v1,a0
801009b0:	00002812 	mflo	a1
801009b4:	0165102b 	sltu	v0,t3,a1
801009b8:	10400004 	beqz	v0,801009cc <LzmaDecode+0x770>
801009bc:	01455023 	subu	t2,t2,a1
801009c0:	00005012 	mflo	t2
801009c4:	08040276 	j	801009d8 <LzmaDecode+0x77c>
801009c8:	ad0c0000 	sw	t4,0(t0)
801009cc:	01655823 	subu	t3,t3,a1
801009d0:	25b80001 	addiu	t8,t5,1
801009d4:	ad030000 	sw	v1,0(t0)
801009d8:	25ceffff 	addiu	t6,t6,-1
801009dc:	15c0ffe1 	bnez	t6,80100964 <LzmaDecode+0x708>
801009e0:	00181080 	sll	v0,t8,0x2
801009e4:	24020001 	li	v0,1
801009e8:	2a630004 	slti	v1,s3,4
801009ec:	00e21004 	sllv	v0,v0,a3
801009f0:	0302c023 	subu	t8,t8,v0
801009f4:	10600081 	beqz	v1,80100bfc <LzmaDecode+0x9a0>
801009f8:	0319c021 	addu	t8,t8,t9
801009fc:	2b030004 	slti	v1,t8,4
80100a00:	24020003 	li	v0,3
80100a04:	0303100b 	0x303100b
80100a08:	26730007 	addiu	s3,s3,7
80100a0c:	00021200 	sll	v0,v0,0x8
80100a10:	24190006 	li	t9,6
80100a14:	02421021 	addu	v0,s2,v0
80100a18:	240c0001 	li	t4,1
80100a1c:	244d06c0 	addiu	t5,v0,1728
80100a20:	3c0200ff 	lui	v0,0xff
80100a24:	3454ffff 	ori	s4,v0,0xffff
80100a28:	24100800 	li	s0,2048
80100a2c:	000c1080 	sll	v0,t4,0x2
80100a30:	028a182b 	sltu	v1,s4,t2
80100a34:	000b2200 	sll	a0,t3,0x8
80100a38:	14600006 	bnez	v1,80100a54 <LzmaDecode+0x7f8>
80100a3c:	01a24021 	addu	t0,t5,v0
80100a40:	1126008d 	beq	t1,a2,80100c78 <LzmaDecode+0xa1c>
80100a44:	000a5200 	sll	t2,t2,0x8
80100a48:	91220000 	lbu	v0,0(t1)
80100a4c:	25290001 	addiu	t1,t1,1
80100a50:	00825825 	or	t3,a0,v0
80100a54:	8d030000 	lw	v1,0(t0)
80100a58:	000a12c2 	srl	v0,t2,0xb
80100a5c:	000c7840 	sll	t7,t4,0x1
80100a60:	00430018 	mult	v0,v1
80100a64:	02031023 	subu	v0,s0,v1
80100a68:	00021142 	srl	v0,v0,0x5
80100a6c:	00627021 	addu	t6,v1,v0
80100a70:	00032142 	srl	a0,v1,0x5
80100a74:	01e06021 	move	t4,t7
80100a78:	00641823 	subu	v1,v1,a0
80100a7c:	00002812 	mflo	a1
80100a80:	0165102b 	sltu	v0,t3,a1
80100a84:	10400004 	beqz	v0,80100a98 <LzmaDecode+0x83c>
80100a88:	01455023 	subu	t2,t2,a1
80100a8c:	00005012 	mflo	t2
80100a90:	080402a9 	j	80100aa4 <LzmaDecode+0x848>
80100a94:	ad0e0000 	sw	t6,0(t0)
80100a98:	01655823 	subu	t3,t3,a1
80100a9c:	25ec0001 	addiu	t4,t7,1
80100aa0:	ad030000 	sw	v1,0(t0)
80100aa4:	2739ffff 	addiu	t9,t9,-1
80100aa8:	1720ffe1 	bnez	t9,80100a30 <LzmaDecode+0x7d4>
80100aac:	000c1080 	sll	v0,t4,0x2
80100ab0:	258cffc0 	addiu	t4,t4,-64
80100ab4:	29820004 	slti	v0,t4,4
80100ab8:	1440004d 	bnez	v0,80100bf0 <LzmaDecode+0x994>
80100abc:	01808021 	move	s0,t4
80100ac0:	000c2043 	sra	a0,t4,0x1
80100ac4:	31820001 	andi	v0,t4,0x1
80100ac8:	2983000e 	slti	v1,t4,14
80100acc:	34500002 	ori	s0,v0,0x2
80100ad0:	10600008 	beqz	v1,80100af4 <LzmaDecode+0x898>
80100ad4:	2488ffff 	addiu	t0,a0,-1
80100ad8:	01108004 	sllv	s0,s0,t0
80100adc:	000c1880 	sll	v1,t4,0x2
80100ae0:	00101080 	sll	v0,s0,0x2
80100ae4:	02421021 	addu	v0,s2,v0
80100ae8:	00431023 	subu	v0,v0,v1
80100aec:	080402d5 	j	80100b54 <LzmaDecode+0x8f8>
80100af0:	244d0abc 	addiu	t5,v0,2748
80100af4:	3c0200ff 	lui	v0,0xff
80100af8:	2488fffb 	addiu	t0,a0,-5
80100afc:	3444ffff 	ori	a0,v0,0xffff
80100b00:	008a102b 	sltu	v0,a0,t2
80100b04:	2508ffff 	addiu	t0,t0,-1
80100b08:	000b1a00 	sll	v1,t3,0x8
80100b0c:	14400006 	bnez	v0,80100b28 <LzmaDecode+0x8cc>
80100b10:	00108040 	sll	s0,s0,0x1
80100b14:	11260058 	beq	t1,a2,80100c78 <LzmaDecode+0xa1c>
80100b18:	000a5200 	sll	t2,t2,0x8
80100b1c:	91220000 	lbu	v0,0(t1)
80100b20:	25290001 	addiu	t1,t1,1
80100b24:	00625825 	or	t3,v1,v0
80100b28:	000a5042 	srl	t2,t2,0x1
80100b2c:	016a102b 	sltu	v0,t3,t2
80100b30:	14400003 	bnez	v0,80100b40 <LzmaDecode+0x8e4>
80100b34:	00000000 	nop
80100b38:	016a5823 	subu	t3,t3,t2
80100b3c:	36100001 	ori	s0,s0,0x1
80100b40:	1500fff0 	bnez	t0,80100b04 <LzmaDecode+0x8a8>
80100b44:	008a102b 	sltu	v0,a0,t2
80100b48:	00108100 	sll	s0,s0,0x4
80100b4c:	264d0c88 	addiu	t5,s2,3208
80100b50:	24080004 	li	t0,4
80100b54:	3c0300ff 	lui	v1,0xff
80100b58:	24070001 	li	a3,1
80100b5c:	24190001 	li	t9,1
80100b60:	3475ffff 	ori	s5,v1,0xffff
80100b64:	24140800 	li	s4,2048
80100b68:	00191080 	sll	v0,t9,0x2
80100b6c:	02aa182b 	sltu	v1,s5,t2
80100b70:	000b2200 	sll	a0,t3,0x8
80100b74:	14600006 	bnez	v1,80100b90 <LzmaDecode+0x934>
80100b78:	01a26021 	addu	t4,t5,v0
80100b7c:	1126003e 	beq	t1,a2,80100c78 <LzmaDecode+0xa1c>
80100b80:	000a5200 	sll	t2,t2,0x8
80100b84:	91220000 	lbu	v0,0(t1)
80100b88:	25290001 	addiu	t1,t1,1
80100b8c:	00825825 	or	t3,a0,v0
80100b90:	8d830000 	lw	v1,0(t4)
80100b94:	000a12c2 	srl	v0,t2,0xb
80100b98:	00197840 	sll	t7,t9,0x1
80100b9c:	00430018 	mult	v0,v1
80100ba0:	02831023 	subu	v0,s4,v1
80100ba4:	00021142 	srl	v0,v0,0x5
80100ba8:	00627021 	addu	t6,v1,v0
80100bac:	00032142 	srl	a0,v1,0x5
80100bb0:	01e0c821 	move	t9,t7
80100bb4:	00641823 	subu	v1,v1,a0
80100bb8:	00002812 	mflo	a1
80100bbc:	0165102b 	sltu	v0,t3,a1
80100bc0:	10400004 	beqz	v0,80100bd4 <LzmaDecode+0x978>
80100bc4:	01455023 	subu	t2,t2,a1
80100bc8:	00005012 	mflo	t2
80100bcc:	080402f9 	j	80100be4 <LzmaDecode+0x988>
80100bd0:	ad8e0000 	sw	t6,0(t4)
80100bd4:	01655823 	subu	t3,t3,a1
80100bd8:	25f90001 	addiu	t9,t7,1
80100bdc:	ad830000 	sw	v1,0(t4)
80100be0:	02078025 	or	s0,s0,a3
80100be4:	2508ffff 	addiu	t0,t0,-1
80100be8:	1500ffdf 	bnez	t0,80100b68 <LzmaDecode+0x90c>
80100bec:	00073840 	sll	a3,a3,0x1
80100bf0:	26100001 	addiu	s0,s0,1
80100bf4:	12000018 	beqz	s0,80100c58 <LzmaDecode+0x9fc>
80100bf8:	3c0200ff 	lui	v0,0xff
80100bfc:	0230102b 	sltu	v0,s1,s0
80100c00:	1440001d 	bnez	v0,80100c78 <LzmaDecode+0xa1c>
80100c04:	27180002 	addiu	t8,t8,2
80100c08:	8fa30050 	lw	v1,80(sp)
80100c0c:	00701023 	subu	v0,v1,s0
80100c10:	02221821 	addu	v1,s1,v0
80100c14:	8fa40050 	lw	a0,80(sp)
80100c18:	2718ffff 	addiu	t8,t8,-1
80100c1c:	906c0000 	lbu	t4,0(v1)
80100c20:	24630001 	addiu	v1,v1,1
80100c24:	02241021 	addu	v0,s1,a0
80100c28:	26310001 	addiu	s1,s1,1
80100c2c:	a04c0000 	sb	t4,0(v0)
80100c30:	8fa50054 	lw	a1,84(sp)
80100c34:	13000003 	beqz	t8,80100c44 <LzmaDecode+0x9e8>
80100c38:	0225102b 	sltu	v0,s1,a1
80100c3c:	1440fff5 	bnez	v0,80100c14 <LzmaDecode+0x9b8>
80100c40:	00000000 	nop
80100c44:	8fa30054 	lw	v1,84(sp)
80100c48:	0223102b 	sltu	v0,s1,v1
80100c4c:	1440fdc6 	bnez	v0,80100368 <LzmaDecode+0x10c>
80100c50:	00000000 	nop
80100c54:	3c0200ff 	lui	v0,0xff
80100c58:	3442ffff 	ori	v0,v0,0xffff
80100c5c:	004a102b 	sltu	v0,v0,t2
80100c60:	14400007 	bnez	v0,80100c80 <LzmaDecode+0xa24>
80100c64:	00000000 	nop
80100c68:	1126000c 	beq	t1,a2,80100c9c <LzmaDecode+0xa40>
80100c6c:	24030001 	li	v1,1
80100c70:	08040320 	j	80100c80 <LzmaDecode+0xa24>
80100c74:	25290001 	addiu	t1,t1,1
80100c78:	08040327 	j	80100c9c <LzmaDecode+0xa40>
80100c7c:	24030001 	li	v1,1
80100c80:	8fa40044 	lw	a0,68(sp)
80100c84:	00001821 	move	v1,zero
80100c88:	8fa5004c 	lw	a1,76(sp)
80100c8c:	01241023 	subu	v0,t1,a0
80100c90:	aca20000 	sw	v0,0(a1)
80100c94:	8fa20058 	lw	v0,88(sp)
80100c98:	ac510000 	sw	s1,0(v0)
80100c9c:	8fbe0038 	lw	s8,56(sp)
80100ca0:	00601021 	move	v0,v1
80100ca4:	8fb70034 	lw	s7,52(sp)
80100ca8:	8fb60030 	lw	s6,48(sp)
80100cac:	8fb5002c 	lw	s5,44(sp)
80100cb0:	8fb40028 	lw	s4,40(sp)
80100cb4:	8fb30024 	lw	s3,36(sp)
80100cb8:	8fb20020 	lw	s2,32(sp)
80100cbc:	8fb1001c 	lw	s1,28(sp)
80100cc0:	8fb00018 	lw	s0,24(sp)
80100cc4:	03e00008 	jr	ra
80100cc8:	27bd0040 	addiu	sp,sp,64
80100ccc:	00000000 	nop
